
backbeams.elf:     file format elf32-littlearm

Sections:
Idx Name          Size      VMA       LMA       File off  Algn
  0 .isr_vector   000000c0  08000000  08000000  00010000  2**0
                  CONTENTS, ALLOC, LOAD, READONLY, DATA
  1 .text         00002a58  080000c0  080000c0  000100c0  2**2
                  CONTENTS, ALLOC, LOAD, READONLY, CODE
  2 .rodata       00000030  08002b18  08002b18  00012b18  2**2
                  CONTENTS, ALLOC, LOAD, READONLY, DATA
  3 .ARM.extab    00000000  08002b48  08002b48  0002000c  2**0
                  CONTENTS
  4 .ARM          00000000  08002b48  08002b48  0002000c  2**0
                  CONTENTS
  5 .preinit_array 00000000  08002b48  08002b48  0002000c  2**0
                  CONTENTS, ALLOC, LOAD, DATA
  6 .init_array   00000004  08002b48  08002b48  00012b48  2**2
                  CONTENTS, ALLOC, LOAD, DATA
  7 .fini_array   00000004  08002b4c  08002b4c  00012b4c  2**2
                  CONTENTS, ALLOC, LOAD, DATA
  8 .data         0000000c  20000000  08002b50  00020000  2**2
                  CONTENTS, ALLOC, LOAD, DATA
  9 .bss          000003e0  2000000c  08002b5c  0002000c  2**2
                  ALLOC
 10 ._user_heap_stack 00000604  200003ec  08002b5c  000203ec  2**0
                  ALLOC
 11 .ARM.attributes 00000028  00000000  00000000  0002000c  2**0
                  CONTENTS, READONLY
 12 .comment      0000007b  00000000  00000000  00020034  2**0
                  CONTENTS, READONLY
 13 .debug_frame  0000006c  00000000  00000000  000200b0  2**2
                  CONTENTS, READONLY, DEBUGGING

Disassembly of section .text:

080000c0 <__do_global_dtors_aux>:
 80000c0:	b510      	push	{r4, lr}
 80000c2:	4c06      	ldr	r4, [pc, #24]	; (80000dc <__do_global_dtors_aux+0x1c>)
 80000c4:	7823      	ldrb	r3, [r4, #0]
 80000c6:	2b00      	cmp	r3, #0
 80000c8:	d107      	bne.n	80000da <__do_global_dtors_aux+0x1a>
 80000ca:	4b05      	ldr	r3, [pc, #20]	; (80000e0 <__do_global_dtors_aux+0x20>)
 80000cc:	2b00      	cmp	r3, #0
 80000ce:	d002      	beq.n	80000d6 <__do_global_dtors_aux+0x16>
 80000d0:	4804      	ldr	r0, [pc, #16]	; (80000e4 <__do_global_dtors_aux+0x24>)
 80000d2:	e000      	b.n	80000d6 <__do_global_dtors_aux+0x16>
 80000d4:	bf00      	nop
 80000d6:	2301      	movs	r3, #1
 80000d8:	7023      	strb	r3, [r4, #0]
 80000da:	bd10      	pop	{r4, pc}
 80000dc:	2000000c 	.word	0x2000000c
 80000e0:	00000000 	.word	0x00000000
 80000e4:	08002b00 	.word	0x08002b00

080000e8 <frame_dummy>:
 80000e8:	4b04      	ldr	r3, [pc, #16]	; (80000fc <frame_dummy+0x14>)
 80000ea:	b510      	push	{r4, lr}
 80000ec:	2b00      	cmp	r3, #0
 80000ee:	d003      	beq.n	80000f8 <frame_dummy+0x10>
 80000f0:	4903      	ldr	r1, [pc, #12]	; (8000100 <frame_dummy+0x18>)
 80000f2:	4804      	ldr	r0, [pc, #16]	; (8000104 <frame_dummy+0x1c>)
 80000f4:	e000      	b.n	80000f8 <frame_dummy+0x10>
 80000f6:	bf00      	nop
 80000f8:	bd10      	pop	{r4, pc}
 80000fa:	46c0      	nop			; (mov r8, r8)
 80000fc:	00000000 	.word	0x00000000
 8000100:	20000010 	.word	0x20000010
 8000104:	08002b00 	.word	0x08002b00

08000108 <__udivsi3>:
 8000108:	2200      	movs	r2, #0
 800010a:	0843      	lsrs	r3, r0, #1
 800010c:	428b      	cmp	r3, r1
 800010e:	d374      	bcc.n	80001fa <__udivsi3+0xf2>
 8000110:	0903      	lsrs	r3, r0, #4
 8000112:	428b      	cmp	r3, r1
 8000114:	d35f      	bcc.n	80001d6 <__udivsi3+0xce>
 8000116:	0a03      	lsrs	r3, r0, #8
 8000118:	428b      	cmp	r3, r1
 800011a:	d344      	bcc.n	80001a6 <__udivsi3+0x9e>
 800011c:	0b03      	lsrs	r3, r0, #12
 800011e:	428b      	cmp	r3, r1
 8000120:	d328      	bcc.n	8000174 <__udivsi3+0x6c>
 8000122:	0c03      	lsrs	r3, r0, #16
 8000124:	428b      	cmp	r3, r1
 8000126:	d30d      	bcc.n	8000144 <__udivsi3+0x3c>
 8000128:	22ff      	movs	r2, #255	; 0xff
 800012a:	0209      	lsls	r1, r1, #8
 800012c:	ba12      	rev	r2, r2
 800012e:	0c03      	lsrs	r3, r0, #16
 8000130:	428b      	cmp	r3, r1
 8000132:	d302      	bcc.n	800013a <__udivsi3+0x32>
 8000134:	1212      	asrs	r2, r2, #8
 8000136:	0209      	lsls	r1, r1, #8
 8000138:	d065      	beq.n	8000206 <__udivsi3+0xfe>
 800013a:	0b03      	lsrs	r3, r0, #12
 800013c:	428b      	cmp	r3, r1
 800013e:	d319      	bcc.n	8000174 <__udivsi3+0x6c>
 8000140:	e000      	b.n	8000144 <__udivsi3+0x3c>
 8000142:	0a09      	lsrs	r1, r1, #8
 8000144:	0bc3      	lsrs	r3, r0, #15
 8000146:	428b      	cmp	r3, r1
 8000148:	d301      	bcc.n	800014e <__udivsi3+0x46>
 800014a:	03cb      	lsls	r3, r1, #15
 800014c:	1ac0      	subs	r0, r0, r3
 800014e:	4152      	adcs	r2, r2
 8000150:	0b83      	lsrs	r3, r0, #14
 8000152:	428b      	cmp	r3, r1
 8000154:	d301      	bcc.n	800015a <__udivsi3+0x52>
 8000156:	038b      	lsls	r3, r1, #14
 8000158:	1ac0      	subs	r0, r0, r3
 800015a:	4152      	adcs	r2, r2
 800015c:	0b43      	lsrs	r3, r0, #13
 800015e:	428b      	cmp	r3, r1
 8000160:	d301      	bcc.n	8000166 <__udivsi3+0x5e>
 8000162:	034b      	lsls	r3, r1, #13
 8000164:	1ac0      	subs	r0, r0, r3
 8000166:	4152      	adcs	r2, r2
 8000168:	0b03      	lsrs	r3, r0, #12
 800016a:	428b      	cmp	r3, r1
 800016c:	d301      	bcc.n	8000172 <__udivsi3+0x6a>
 800016e:	030b      	lsls	r3, r1, #12
 8000170:	1ac0      	subs	r0, r0, r3
 8000172:	4152      	adcs	r2, r2
 8000174:	0ac3      	lsrs	r3, r0, #11
 8000176:	428b      	cmp	r3, r1
 8000178:	d301      	bcc.n	800017e <__udivsi3+0x76>
 800017a:	02cb      	lsls	r3, r1, #11
 800017c:	1ac0      	subs	r0, r0, r3
 800017e:	4152      	adcs	r2, r2
 8000180:	0a83      	lsrs	r3, r0, #10
 8000182:	428b      	cmp	r3, r1
 8000184:	d301      	bcc.n	800018a <__udivsi3+0x82>
 8000186:	028b      	lsls	r3, r1, #10
 8000188:	1ac0      	subs	r0, r0, r3
 800018a:	4152      	adcs	r2, r2
 800018c:	0a43      	lsrs	r3, r0, #9
 800018e:	428b      	cmp	r3, r1
 8000190:	d301      	bcc.n	8000196 <__udivsi3+0x8e>
 8000192:	024b      	lsls	r3, r1, #9
 8000194:	1ac0      	subs	r0, r0, r3
 8000196:	4152      	adcs	r2, r2
 8000198:	0a03      	lsrs	r3, r0, #8
 800019a:	428b      	cmp	r3, r1
 800019c:	d301      	bcc.n	80001a2 <__udivsi3+0x9a>
 800019e:	020b      	lsls	r3, r1, #8
 80001a0:	1ac0      	subs	r0, r0, r3
 80001a2:	4152      	adcs	r2, r2
 80001a4:	d2cd      	bcs.n	8000142 <__udivsi3+0x3a>
 80001a6:	09c3      	lsrs	r3, r0, #7
 80001a8:	428b      	cmp	r3, r1
 80001aa:	d301      	bcc.n	80001b0 <__udivsi3+0xa8>
 80001ac:	01cb      	lsls	r3, r1, #7
 80001ae:	1ac0      	subs	r0, r0, r3
 80001b0:	4152      	adcs	r2, r2
 80001b2:	0983      	lsrs	r3, r0, #6
 80001b4:	428b      	cmp	r3, r1
 80001b6:	d301      	bcc.n	80001bc <__udivsi3+0xb4>
 80001b8:	018b      	lsls	r3, r1, #6
 80001ba:	1ac0      	subs	r0, r0, r3
 80001bc:	4152      	adcs	r2, r2
 80001be:	0943      	lsrs	r3, r0, #5
 80001c0:	428b      	cmp	r3, r1
 80001c2:	d301      	bcc.n	80001c8 <__udivsi3+0xc0>
 80001c4:	014b      	lsls	r3, r1, #5
 80001c6:	1ac0      	subs	r0, r0, r3
 80001c8:	4152      	adcs	r2, r2
 80001ca:	0903      	lsrs	r3, r0, #4
 80001cc:	428b      	cmp	r3, r1
 80001ce:	d301      	bcc.n	80001d4 <__udivsi3+0xcc>
 80001d0:	010b      	lsls	r3, r1, #4
 80001d2:	1ac0      	subs	r0, r0, r3
 80001d4:	4152      	adcs	r2, r2
 80001d6:	08c3      	lsrs	r3, r0, #3
 80001d8:	428b      	cmp	r3, r1
 80001da:	d301      	bcc.n	80001e0 <__udivsi3+0xd8>
 80001dc:	00cb      	lsls	r3, r1, #3
 80001de:	1ac0      	subs	r0, r0, r3
 80001e0:	4152      	adcs	r2, r2
 80001e2:	0883      	lsrs	r3, r0, #2
 80001e4:	428b      	cmp	r3, r1
 80001e6:	d301      	bcc.n	80001ec <__udivsi3+0xe4>
 80001e8:	008b      	lsls	r3, r1, #2
 80001ea:	1ac0      	subs	r0, r0, r3
 80001ec:	4152      	adcs	r2, r2
 80001ee:	0843      	lsrs	r3, r0, #1
 80001f0:	428b      	cmp	r3, r1
 80001f2:	d301      	bcc.n	80001f8 <__udivsi3+0xf0>
 80001f4:	004b      	lsls	r3, r1, #1
 80001f6:	1ac0      	subs	r0, r0, r3
 80001f8:	4152      	adcs	r2, r2
 80001fa:	1a41      	subs	r1, r0, r1
 80001fc:	d200      	bcs.n	8000200 <__udivsi3+0xf8>
 80001fe:	4601      	mov	r1, r0
 8000200:	4152      	adcs	r2, r2
 8000202:	4610      	mov	r0, r2
 8000204:	4770      	bx	lr
 8000206:	e7ff      	b.n	8000208 <__udivsi3+0x100>
 8000208:	b501      	push	{r0, lr}
 800020a:	2000      	movs	r0, #0
 800020c:	f000 f806 	bl	800021c <__aeabi_idiv0>
 8000210:	bd02      	pop	{r1, pc}
 8000212:	46c0      	nop			; (mov r8, r8)

08000214 <__aeabi_uidivmod>:
 8000214:	2900      	cmp	r1, #0
 8000216:	d0f7      	beq.n	8000208 <__udivsi3+0x100>
 8000218:	e776      	b.n	8000108 <__udivsi3>
 800021a:	4770      	bx	lr

0800021c <__aeabi_idiv0>:
 800021c:	4770      	bx	lr
 800021e:	46c0      	nop			; (mov r8, r8)

08000220 <SystemClock_Config>:
 8000220:	b500      	push	{lr}
 8000222:	b093      	sub	sp, #76	; 0x4c
 8000224:	2230      	movs	r2, #48	; 0x30
 8000226:	2100      	movs	r1, #0
 8000228:	a806      	add	r0, sp, #24
 800022a:	f002 fc61 	bl	8002af0 <memset>
 800022e:	2210      	movs	r2, #16
 8000230:	2100      	movs	r1, #0
 8000232:	a801      	add	r0, sp, #4
 8000234:	f002 fc5c 	bl	8002af0 <memset>
 8000238:	2320      	movs	r3, #32
 800023a:	a805      	add	r0, sp, #20
 800023c:	9305      	str	r3, [sp, #20]
 800023e:	3b1f      	subs	r3, #31
 8000240:	930d      	str	r3, [sp, #52]	; 0x34
 8000242:	f001 fc29 	bl	8001a98 <HAL_RCC_OscConfig>
 8000246:	2307      	movs	r3, #7
 8000248:	9301      	str	r3, [sp, #4]
 800024a:	3b04      	subs	r3, #4
 800024c:	9302      	str	r3, [sp, #8]
 800024e:	2300      	movs	r3, #0
 8000250:	2101      	movs	r1, #1
 8000252:	a801      	add	r0, sp, #4
 8000254:	9303      	str	r3, [sp, #12]
 8000256:	9304      	str	r3, [sp, #16]
 8000258:	f001 fec2 	bl	8001fe0 <HAL_RCC_ClockConfig>
 800025c:	b013      	add	sp, #76	; 0x4c
 800025e:	bd00      	pop	{pc}

08000260 <main>:
 8000260:	b5f0      	push	{r4, r5, r6, r7, lr}
 8000262:	46de      	mov	lr, fp
 8000264:	4657      	mov	r7, sl
 8000266:	4645      	mov	r5, r8
 8000268:	464e      	mov	r6, r9
 800026a:	b5e0      	push	{r5, r6, r7, lr}
 800026c:	b09f      	sub	sp, #124	; 0x7c
 800026e:	f000 fe4d 	bl	8000f0c <HAL_Init>
 8000272:	f7ff ffd5 	bl	8000220 <SystemClock_Config>
 8000276:	20fa      	movs	r0, #250	; 0xfa
 8000278:	0040      	lsls	r0, r0, #1
 800027a:	f000 fe69 	bl	8000f50 <HAL_Delay>
 800027e:	2080      	movs	r0, #128	; 0x80
 8000280:	4b96      	ldr	r3, [pc, #600]	; (80004dc <main+0x27c>)
 8000282:	02c0      	lsls	r0, r0, #11
 8000284:	6959      	ldr	r1, [r3, #20]
 8000286:	2501      	movs	r5, #1
 8000288:	4301      	orrs	r1, r0
 800028a:	6159      	str	r1, [r3, #20]
 800028c:	695a      	ldr	r2, [r3, #20]
 800028e:	2400      	movs	r4, #0
 8000290:	4002      	ands	r2, r0
 8000292:	2080      	movs	r0, #128	; 0x80
 8000294:	920b      	str	r2, [sp, #44]	; 0x2c
 8000296:	9a0b      	ldr	r2, [sp, #44]	; 0x2c
 8000298:	6959      	ldr	r1, [r3, #20]
 800029a:	0280      	lsls	r0, r0, #10
 800029c:	4301      	orrs	r1, r0
 800029e:	6159      	str	r1, [r3, #20]
 80002a0:	695a      	ldr	r2, [r3, #20]
 80002a2:	2100      	movs	r1, #0
 80002a4:	4002      	ands	r2, r0
 80002a6:	920c      	str	r2, [sp, #48]	; 0x30
 80002a8:	9a0c      	ldr	r2, [sp, #48]	; 0x30
 80002aa:	695a      	ldr	r2, [r3, #20]
 80002ac:	200b      	movs	r0, #11
 80002ae:	432a      	orrs	r2, r5
 80002b0:	615a      	str	r2, [r3, #20]
 80002b2:	695b      	ldr	r3, [r3, #20]
 80002b4:	2200      	movs	r2, #0
 80002b6:	402b      	ands	r3, r5
 80002b8:	930d      	str	r3, [sp, #52]	; 0x34
 80002ba:	9b0d      	ldr	r3, [sp, #52]	; 0x34
 80002bc:	f001 f9f0 	bl	80016a0 <HAL_NVIC_SetPriority>
 80002c0:	200b      	movs	r0, #11
 80002c2:	f001 fa19 	bl	80016f8 <HAL_NVIC_EnableIRQ>
 80002c6:	4e86      	ldr	r6, [pc, #536]	; (80004e0 <main+0x280>)
 80002c8:	4b86      	ldr	r3, [pc, #536]	; (80004e4 <main+0x284>)
 80002ca:	61b4      	str	r4, [r6, #24]
 80002cc:	6033      	str	r3, [r6, #0]
 80002ce:	2310      	movs	r3, #16
 80002d0:	6073      	str	r3, [r6, #4]
 80002d2:	23e0      	movs	r3, #224	; 0xe0
 80002d4:	02db      	lsls	r3, r3, #11
 80002d6:	6133      	str	r3, [r6, #16]
 80002d8:	2380      	movs	r3, #128	; 0x80
 80002da:	0030      	movs	r0, r6
 80002dc:	039b      	lsls	r3, r3, #14
 80002de:	60b4      	str	r4, [r6, #8]
 80002e0:	60f4      	str	r4, [r6, #12]
 80002e2:	6173      	str	r3, [r6, #20]
 80002e4:	7734      	strb	r4, [r6, #28]
 80002e6:	7774      	strb	r4, [r6, #29]
 80002e8:	f000 fe44 	bl	8000f74 <HAL_CAN_Init>
 80002ec:	4b7e      	ldr	r3, [pc, #504]	; (80004e8 <main+0x288>)
 80002ee:	a914      	add	r1, sp, #80	; 0x50
 80002f0:	9314      	str	r3, [sp, #80]	; 0x50
 80002f2:	23c8      	movs	r3, #200	; 0xc8
 80002f4:	0030      	movs	r0, r6
 80002f6:	019b      	lsls	r3, r3, #6
 80002f8:	9315      	str	r3, [sp, #84]	; 0x54
 80002fa:	951c      	str	r5, [sp, #112]	; 0x70
 80002fc:	9419      	str	r4, [sp, #100]	; 0x64
 80002fe:	9418      	str	r4, [sp, #96]	; 0x60
 8000300:	941a      	str	r4, [sp, #104]	; 0x68
 8000302:	951b      	str	r5, [sp, #108]	; 0x6c
 8000304:	9416      	str	r4, [sp, #88]	; 0x58
 8000306:	9417      	str	r4, [sp, #92]	; 0x5c
 8000308:	f000 feca 	bl	80010a0 <HAL_CAN_ConfigFilter>
 800030c:	0030      	movs	r0, r6
 800030e:	f000 ff45 	bl	800119c <HAL_CAN_Start>
 8000312:	4976      	ldr	r1, [pc, #472]	; (80004ec <main+0x28c>)
 8000314:	0030      	movs	r0, r6
 8000316:	f001 f871 	bl	80013fc <HAL_CAN_ActivateNotification>
 800031a:	2210      	movs	r2, #16
 800031c:	2100      	movs	r1, #0
 800031e:	a810      	add	r0, sp, #64	; 0x40
 8000320:	f002 fbe6 	bl	8002af0 <memset>
 8000324:	2208      	movs	r2, #8
 8000326:	2100      	movs	r1, #0
 8000328:	a80e      	add	r0, sp, #56	; 0x38
 800032a:	f002 fbe1 	bl	8002af0 <memset>
 800032e:	2100      	movs	r1, #0
 8000330:	221c      	movs	r2, #28
 8000332:	a814      	add	r0, sp, #80	; 0x50
 8000334:	f002 fbdc 	bl	8002af0 <memset>
 8000338:	4a6d      	ldr	r2, [pc, #436]	; (80004f0 <main+0x290>)
 800033a:	4b6e      	ldr	r3, [pc, #440]	; (80004f4 <main+0x294>)
 800033c:	0010      	movs	r0, r2
 800033e:	6013      	str	r3, [r2, #0]
 8000340:	233b      	movs	r3, #59	; 0x3b
 8000342:	6054      	str	r4, [r2, #4]
 8000344:	6094      	str	r4, [r2, #8]
 8000346:	60d3      	str	r3, [r2, #12]
 8000348:	6114      	str	r4, [r2, #16]
 800034a:	6194      	str	r4, [r2, #24]
 800034c:	f001 ff1e 	bl	800218c <HAL_TIM_Base_Init>
 8000350:	2380      	movs	r3, #128	; 0x80
 8000352:	a910      	add	r1, sp, #64	; 0x40
 8000354:	015b      	lsls	r3, r3, #5
 8000356:	4866      	ldr	r0, [pc, #408]	; (80004f0 <main+0x290>)
 8000358:	4698      	mov	r8, r3
 800035a:	9310      	str	r3, [sp, #64]	; 0x40
 800035c:	f002 f9ca 	bl	80026f4 <HAL_TIM_ConfigClockSource>
 8000360:	4863      	ldr	r0, [pc, #396]	; (80004f0 <main+0x290>)
 8000362:	f001 ff8f 	bl	8002284 <HAL_TIM_PWM_Init>
 8000366:	a90e      	add	r1, sp, #56	; 0x38
 8000368:	4861      	ldr	r0, [pc, #388]	; (80004f0 <main+0x290>)
 800036a:	940e      	str	r4, [sp, #56]	; 0x38
 800036c:	940f      	str	r4, [sp, #60]	; 0x3c
 800036e:	f002 fb67 	bl	8002a40 <HAL_TIMEx_MasterConfigSynchronization>
 8000372:	2360      	movs	r3, #96	; 0x60
 8000374:	2200      	movs	r2, #0
 8000376:	a914      	add	r1, sp, #80	; 0x50
 8000378:	485d      	ldr	r0, [pc, #372]	; (80004f0 <main+0x290>)
 800037a:	9314      	str	r3, [sp, #80]	; 0x50
 800037c:	9415      	str	r4, [sp, #84]	; 0x54
 800037e:	9416      	str	r4, [sp, #88]	; 0x58
 8000380:	9418      	str	r4, [sp, #96]	; 0x60
 8000382:	f002 f891 	bl	80024a8 <HAL_TIM_PWM_ConfigChannel>
 8000386:	485a      	ldr	r0, [pc, #360]	; (80004f0 <main+0x290>)
 8000388:	f000 fd0a 	bl	8000da0 <HAL_TIM_MspPostInit>
 800038c:	2210      	movs	r2, #16
 800038e:	2100      	movs	r1, #0
 8000390:	a814      	add	r0, sp, #80	; 0x50
 8000392:	f002 fbad 	bl	8002af0 <memset>
 8000396:	2208      	movs	r2, #8
 8000398:	2100      	movs	r1, #0
 800039a:	a810      	add	r0, sp, #64	; 0x40
 800039c:	f002 fba8 	bl	8002af0 <memset>
 80003a0:	2380      	movs	r3, #128	; 0x80
 80003a2:	4f55      	ldr	r7, [pc, #340]	; (80004f8 <main+0x298>)
 80003a4:	05db      	lsls	r3, r3, #23
 80003a6:	603b      	str	r3, [r7, #0]
 80003a8:	2396      	movs	r3, #150	; 0x96
 80003aa:	015b      	lsls	r3, r3, #5
 80003ac:	607b      	str	r3, [r7, #4]
 80003ae:	23fa      	movs	r3, #250	; 0xfa
 80003b0:	0038      	movs	r0, r7
 80003b2:	009b      	lsls	r3, r3, #2
 80003b4:	60bc      	str	r4, [r7, #8]
 80003b6:	60fb      	str	r3, [r7, #12]
 80003b8:	613c      	str	r4, [r7, #16]
 80003ba:	61bc      	str	r4, [r7, #24]
 80003bc:	f001 fee6 	bl	800218c <HAL_TIM_Base_Init>
 80003c0:	4643      	mov	r3, r8
 80003c2:	a914      	add	r1, sp, #80	; 0x50
 80003c4:	0038      	movs	r0, r7
 80003c6:	9314      	str	r3, [sp, #80]	; 0x50
 80003c8:	f002 f994 	bl	80026f4 <HAL_TIM_ConfigClockSource>
 80003cc:	a910      	add	r1, sp, #64	; 0x40
 80003ce:	0038      	movs	r0, r7
 80003d0:	9410      	str	r4, [sp, #64]	; 0x40
 80003d2:	9411      	str	r4, [sp, #68]	; 0x44
 80003d4:	f002 fb34 	bl	8002a40 <HAL_TIMEx_MasterConfigSynchronization>
 80003d8:	0038      	movs	r0, r7
 80003da:	f001 ff41 	bl	8002260 <HAL_TIM_Base_Start_IT>
 80003de:	2308      	movs	r3, #8
 80003e0:	9318      	str	r3, [sp, #96]	; 0x60
 80003e2:	4b46      	ldr	r3, [pc, #280]	; (80004fc <main+0x29c>)
 80003e4:	aa10      	add	r2, sp, #64	; 0x40
 80003e6:	9315      	str	r3, [sp, #84]	; 0x54
 80003e8:	2304      	movs	r3, #4
 80003ea:	9316      	str	r3, [sp, #88]	; 0x58
 80003ec:	33fa      	adds	r3, #250	; 0xfa
 80003ee:	9310      	str	r3, [sp, #64]	; 0x40
 80003f0:	4b43      	ldr	r3, [pc, #268]	; (8000500 <main+0x2a0>)
 80003f2:	a914      	add	r1, sp, #80	; 0x50
 80003f4:	9311      	str	r3, [sp, #68]	; 0x44
 80003f6:	0030      	movs	r0, r6
 80003f8:	ab0e      	add	r3, sp, #56	; 0x38
 80003fa:	9417      	str	r4, [sp, #92]	; 0x5c
 80003fc:	f000 fefe 	bl	80011fc <HAL_CAN_AddTxMessage>
 8000400:	4b40      	ldr	r3, [pc, #256]	; (8000504 <main+0x2a4>)
 8000402:	4f41      	ldr	r7, [pc, #260]	; (8000508 <main+0x2a8>)
 8000404:	085a      	lsrs	r2, r3, #1
 8000406:	4252      	negs	r2, r2
 8000408:	402a      	ands	r2, r5
 800040a:	0011      	movs	r1, r2
 800040c:	9206      	str	r2, [sp, #24]
 800040e:	2278      	movs	r2, #120	; 0x78
 8000410:	1a50      	subs	r0, r2, r1
 8000412:	000a      	movs	r2, r1
 8000414:	001c      	movs	r4, r3
 8000416:	3230      	adds	r2, #48	; 0x30
 8000418:	0052      	lsls	r2, r2, #1
 800041a:	3c60      	subs	r4, #96	; 0x60
 800041c:	0846      	lsrs	r6, r0, #1
 800041e:	1912      	adds	r2, r2, r4
 8000420:	9005      	str	r0, [sp, #20]
 8000422:	43a8      	bics	r0, r5
 8000424:	9204      	str	r2, [sp, #16]
 8000426:	b282      	uxth	r2, r0
 8000428:	9207      	str	r2, [sp, #28]
 800042a:	2203      	movs	r2, #3
 800042c:	4013      	ands	r3, r2
 800042e:	9309      	str	r3, [sp, #36]	; 0x24
 8000430:	4b36      	ldr	r3, [pc, #216]	; (800050c <main+0x2ac>)
 8000432:	9008      	str	r0, [sp, #32]
 8000434:	781b      	ldrb	r3, [r3, #0]
 8000436:	4d36      	ldr	r5, [pc, #216]	; (8000510 <main+0x2b0>)
 8000438:	b2db      	uxtb	r3, r3
 800043a:	469a      	mov	sl, r3
 800043c:	4b35      	ldr	r3, [pc, #212]	; (8000514 <main+0x2b4>)
 800043e:	9602      	str	r6, [sp, #8]
 8000440:	781b      	ldrb	r3, [r3, #0]
 8000442:	2b00      	cmp	r3, #0
 8000444:	d100      	bne.n	8000448 <main+0x1e8>
 8000446:	e237      	b.n	80008b8 <main+0x658>
 8000448:	4b33      	ldr	r3, [pc, #204]	; (8000518 <main+0x2b8>)
 800044a:	9e02      	ldr	r6, [sp, #8]
 800044c:	781b      	ldrb	r3, [r3, #0]
 800044e:	1e5a      	subs	r2, r3, #1
 8000450:	4193      	sbcs	r3, r2
 8000452:	4652      	mov	r2, sl
 8000454:	425b      	negs	r3, r3
 8000456:	401a      	ands	r2, r3
 8000458:	4692      	mov	sl, r2
 800045a:	783b      	ldrb	r3, [r7, #0]
 800045c:	2b00      	cmp	r3, #0
 800045e:	d1fc      	bne.n	800045a <main+0x1fa>
 8000460:	4b2e      	ldr	r3, [pc, #184]	; (800051c <main+0x2bc>)
 8000462:	9602      	str	r6, [sp, #8]
 8000464:	781b      	ldrb	r3, [r3, #0]
 8000466:	2b00      	cmp	r3, #0
 8000468:	d100      	bne.n	800046c <main+0x20c>
 800046a:	e227      	b.n	80008bc <main+0x65c>
 800046c:	4653      	mov	r3, sl
 800046e:	b25b      	sxtb	r3, r3
 8000470:	2213      	movs	r2, #19
 8000472:	2b00      	cmp	r3, #0
 8000474:	da00      	bge.n	8000478 <main+0x218>
 8000476:	2226      	movs	r2, #38	; 0x26
 8000478:	b293      	uxth	r3, r2
 800047a:	4652      	mov	r2, sl
 800047c:	4699      	mov	r9, r3
 800047e:	2313      	movs	r3, #19
 8000480:	0652      	lsls	r2, r2, #25
 8000482:	d500      	bpl.n	8000486 <main+0x226>
 8000484:	2326      	movs	r3, #38	; 0x26
 8000486:	4652      	mov	r2, sl
 8000488:	b29b      	uxth	r3, r3
 800048a:	4698      	mov	r8, r3
 800048c:	2313      	movs	r3, #19
 800048e:	0692      	lsls	r2, r2, #26
 8000490:	d500      	bpl.n	8000494 <main+0x234>
 8000492:	2326      	movs	r3, #38	; 0x26
 8000494:	b29b      	uxth	r3, r3
 8000496:	469c      	mov	ip, r3
 8000498:	4653      	mov	r3, sl
 800049a:	2013      	movs	r0, #19
 800049c:	06db      	lsls	r3, r3, #27
 800049e:	d500      	bpl.n	80004a2 <main+0x242>
 80004a0:	2026      	movs	r0, #38	; 0x26
 80004a2:	4653      	mov	r3, sl
 80004a4:	b280      	uxth	r0, r0
 80004a6:	2113      	movs	r1, #19
 80004a8:	071b      	lsls	r3, r3, #28
 80004aa:	d500      	bpl.n	80004ae <main+0x24e>
 80004ac:	2126      	movs	r1, #38	; 0x26
 80004ae:	4653      	mov	r3, sl
 80004b0:	b289      	uxth	r1, r1
 80004b2:	2213      	movs	r2, #19
 80004b4:	075b      	lsls	r3, r3, #29
 80004b6:	d500      	bpl.n	80004ba <main+0x25a>
 80004b8:	2226      	movs	r2, #38	; 0x26
 80004ba:	b296      	uxth	r6, r2
 80004bc:	4652      	mov	r2, sl
 80004be:	2313      	movs	r3, #19
 80004c0:	0792      	lsls	r2, r2, #30
 80004c2:	d500      	bpl.n	80004c6 <main+0x266>
 80004c4:	2326      	movs	r3, #38	; 0x26
 80004c6:	2213      	movs	r2, #19
 80004c8:	b29b      	uxth	r3, r3
 80004ca:	9303      	str	r3, [sp, #12]
 80004cc:	4693      	mov	fp, r2
 80004ce:	4653      	mov	r3, sl
 80004d0:	2201      	movs	r2, #1
 80004d2:	421a      	tst	r2, r3
 80004d4:	d024      	beq.n	8000520 <main+0x2c0>
 80004d6:	2326      	movs	r3, #38	; 0x26
 80004d8:	469b      	mov	fp, r3
 80004da:	e021      	b.n	8000520 <main+0x2c0>
 80004dc:	40021000 	.word	0x40021000
 80004e0:	20000030 	.word	0x20000030
 80004e4:	40006400 	.word	0x40006400
 80004e8:	00001039 	.word	0x00001039
 80004ec:	00008002 	.word	0x00008002
 80004f0:	20000058 	.word	0x20000058
 80004f4:	40000400 	.word	0x40000400
 80004f8:	200003a8 	.word	0x200003a8
 80004fc:	10339200 	.word	0x10339200
 8000500:	13370000 	.word	0x13370000
 8000504:	2000013c 	.word	0x2000013c
 8000508:	2000002a 	.word	0x2000002a
 800050c:	20000029 	.word	0x20000029
 8000510:	00130013 	.word	0x00130013
 8000514:	20000028 	.word	0x20000028
 8000518:	2000002c 	.word	0x2000002c
 800051c:	2000002b 	.word	0x2000002b
 8000520:	465b      	mov	r3, fp
 8000522:	b29b      	uxth	r3, r3
 8000524:	469a      	mov	sl, r3
 8000526:	9b09      	ldr	r3, [sp, #36]	; 0x24
 8000528:	2b00      	cmp	r3, #0
 800052a:	d000      	beq.n	800052e <main+0x2ce>
 800052c:	e1e2      	b.n	80008f4 <main+0x694>
 800052e:	464a      	mov	r2, r9
 8000530:	3360      	adds	r3, #96	; 0x60
 8000532:	52e2      	strh	r2, [r4, r3]
 8000534:	4642      	mov	r2, r8
 8000536:	3302      	adds	r3, #2
 8000538:	52e2      	strh	r2, [r4, r3]
 800053a:	4662      	mov	r2, ip
 800053c:	3302      	adds	r3, #2
 800053e:	52e2      	strh	r2, [r4, r3]
 8000540:	3302      	adds	r3, #2
 8000542:	52e0      	strh	r0, [r4, r3]
 8000544:	3302      	adds	r3, #2
 8000546:	52e1      	strh	r1, [r4, r3]
 8000548:	3302      	adds	r3, #2
 800054a:	52e6      	strh	r6, [r4, r3]
 800054c:	9b03      	ldr	r3, [sp, #12]
 800054e:	9601      	str	r6, [sp, #4]
 8000550:	469b      	mov	fp, r3
 8000552:	236c      	movs	r3, #108	; 0x6c
 8000554:	465a      	mov	r2, fp
 8000556:	52e2      	strh	r2, [r4, r3]
 8000558:	4653      	mov	r3, sl
 800055a:	226e      	movs	r2, #110	; 0x6e
 800055c:	464e      	mov	r6, r9
 800055e:	52a3      	strh	r3, [r4, r2]
 8000560:	3202      	adds	r2, #2
 8000562:	52a6      	strh	r6, [r4, r2]
 8000564:	4646      	mov	r6, r8
 8000566:	3202      	adds	r2, #2
 8000568:	52a6      	strh	r6, [r4, r2]
 800056a:	4666      	mov	r6, ip
 800056c:	3202      	adds	r2, #2
 800056e:	52a6      	strh	r6, [r4, r2]
 8000570:	3202      	adds	r2, #2
 8000572:	52a0      	strh	r0, [r4, r2]
 8000574:	9e01      	ldr	r6, [sp, #4]
 8000576:	3202      	adds	r2, #2
 8000578:	52a1      	strh	r1, [r4, r2]
 800057a:	3202      	adds	r2, #2
 800057c:	52a6      	strh	r6, [r4, r2]
 800057e:	465e      	mov	r6, fp
 8000580:	3202      	adds	r2, #2
 8000582:	52a6      	strh	r6, [r4, r2]
 8000584:	3202      	adds	r2, #2
 8000586:	52a3      	strh	r3, [r4, r2]
 8000588:	3202      	adds	r2, #2
 800058a:	4692      	mov	sl, r2
 800058c:	464e      	mov	r6, r9
 800058e:	44a2      	add	sl, r4
 8000590:	52a6      	strh	r6, [r4, r2]
 8000592:	4652      	mov	r2, sl
 8000594:	4646      	mov	r6, r8
 8000596:	8056      	strh	r6, [r2, #2]
 8000598:	2284      	movs	r2, #132	; 0x84
 800059a:	4692      	mov	sl, r2
 800059c:	4666      	mov	r6, ip
 800059e:	44a2      	add	sl, r4
 80005a0:	52a6      	strh	r6, [r4, r2]
 80005a2:	4652      	mov	r2, sl
 80005a4:	8050      	strh	r0, [r2, #2]
 80005a6:	2288      	movs	r2, #136	; 0x88
 80005a8:	4692      	mov	sl, r2
 80005aa:	44a2      	add	sl, r4
 80005ac:	52a1      	strh	r1, [r4, r2]
 80005ae:	4652      	mov	r2, sl
 80005b0:	9e01      	ldr	r6, [sp, #4]
 80005b2:	8056      	strh	r6, [r2, #2]
 80005b4:	228c      	movs	r2, #140	; 0x8c
 80005b6:	4692      	mov	sl, r2
 80005b8:	465e      	mov	r6, fp
 80005ba:	44a2      	add	sl, r4
 80005bc:	52a6      	strh	r6, [r4, r2]
 80005be:	4652      	mov	r2, sl
 80005c0:	8053      	strh	r3, [r2, #2]
 80005c2:	2290      	movs	r2, #144	; 0x90
 80005c4:	4692      	mov	sl, r2
 80005c6:	464e      	mov	r6, r9
 80005c8:	44a2      	add	sl, r4
 80005ca:	52a6      	strh	r6, [r4, r2]
 80005cc:	4652      	mov	r2, sl
 80005ce:	4646      	mov	r6, r8
 80005d0:	8056      	strh	r6, [r2, #2]
 80005d2:	2294      	movs	r2, #148	; 0x94
 80005d4:	4692      	mov	sl, r2
 80005d6:	4666      	mov	r6, ip
 80005d8:	44a2      	add	sl, r4
 80005da:	52a6      	strh	r6, [r4, r2]
 80005dc:	4652      	mov	r2, sl
 80005de:	8050      	strh	r0, [r2, #2]
 80005e0:	2298      	movs	r2, #152	; 0x98
 80005e2:	4692      	mov	sl, r2
 80005e4:	44a2      	add	sl, r4
 80005e6:	52a1      	strh	r1, [r4, r2]
 80005e8:	4652      	mov	r2, sl
 80005ea:	9e01      	ldr	r6, [sp, #4]
 80005ec:	8056      	strh	r6, [r2, #2]
 80005ee:	229c      	movs	r2, #156	; 0x9c
 80005f0:	4692      	mov	sl, r2
 80005f2:	465e      	mov	r6, fp
 80005f4:	44a2      	add	sl, r4
 80005f6:	52a6      	strh	r6, [r4, r2]
 80005f8:	4652      	mov	r2, sl
 80005fa:	8053      	strh	r3, [r2, #2]
 80005fc:	22a0      	movs	r2, #160	; 0xa0
 80005fe:	4692      	mov	sl, r2
 8000600:	464e      	mov	r6, r9
 8000602:	44a2      	add	sl, r4
 8000604:	52a6      	strh	r6, [r4, r2]
 8000606:	4652      	mov	r2, sl
 8000608:	4646      	mov	r6, r8
 800060a:	8056      	strh	r6, [r2, #2]
 800060c:	22a4      	movs	r2, #164	; 0xa4
 800060e:	4692      	mov	sl, r2
 8000610:	4666      	mov	r6, ip
 8000612:	44a2      	add	sl, r4
 8000614:	52a6      	strh	r6, [r4, r2]
 8000616:	4652      	mov	r2, sl
 8000618:	8050      	strh	r0, [r2, #2]
 800061a:	22a8      	movs	r2, #168	; 0xa8
 800061c:	4692      	mov	sl, r2
 800061e:	44a2      	add	sl, r4
 8000620:	52a1      	strh	r1, [r4, r2]
 8000622:	4652      	mov	r2, sl
 8000624:	9e01      	ldr	r6, [sp, #4]
 8000626:	8056      	strh	r6, [r2, #2]
 8000628:	22ac      	movs	r2, #172	; 0xac
 800062a:	4692      	mov	sl, r2
 800062c:	465e      	mov	r6, fp
 800062e:	44a2      	add	sl, r4
 8000630:	52a6      	strh	r6, [r4, r2]
 8000632:	4652      	mov	r2, sl
 8000634:	8053      	strh	r3, [r2, #2]
 8000636:	22b0      	movs	r2, #176	; 0xb0
 8000638:	4692      	mov	sl, r2
 800063a:	464e      	mov	r6, r9
 800063c:	44a2      	add	sl, r4
 800063e:	52a6      	strh	r6, [r4, r2]
 8000640:	4652      	mov	r2, sl
 8000642:	4646      	mov	r6, r8
 8000644:	8056      	strh	r6, [r2, #2]
 8000646:	22b4      	movs	r2, #180	; 0xb4
 8000648:	4692      	mov	sl, r2
 800064a:	4666      	mov	r6, ip
 800064c:	44a2      	add	sl, r4
 800064e:	52a6      	strh	r6, [r4, r2]
 8000650:	4652      	mov	r2, sl
 8000652:	8050      	strh	r0, [r2, #2]
 8000654:	22b8      	movs	r2, #184	; 0xb8
 8000656:	4692      	mov	sl, r2
 8000658:	44a2      	add	sl, r4
 800065a:	52a1      	strh	r1, [r4, r2]
 800065c:	4652      	mov	r2, sl
 800065e:	9e01      	ldr	r6, [sp, #4]
 8000660:	8056      	strh	r6, [r2, #2]
 8000662:	22bc      	movs	r2, #188	; 0xbc
 8000664:	4692      	mov	sl, r2
 8000666:	465e      	mov	r6, fp
 8000668:	44a2      	add	sl, r4
 800066a:	52a6      	strh	r6, [r4, r2]
 800066c:	4652      	mov	r2, sl
 800066e:	8053      	strh	r3, [r2, #2]
 8000670:	22c0      	movs	r2, #192	; 0xc0
 8000672:	4692      	mov	sl, r2
 8000674:	464e      	mov	r6, r9
 8000676:	44a2      	add	sl, r4
 8000678:	52a6      	strh	r6, [r4, r2]
 800067a:	4652      	mov	r2, sl
 800067c:	4646      	mov	r6, r8
 800067e:	8056      	strh	r6, [r2, #2]
 8000680:	22c4      	movs	r2, #196	; 0xc4
 8000682:	4692      	mov	sl, r2
 8000684:	4666      	mov	r6, ip
 8000686:	44a2      	add	sl, r4
 8000688:	52a6      	strh	r6, [r4, r2]
 800068a:	4652      	mov	r2, sl
 800068c:	8050      	strh	r0, [r2, #2]
 800068e:	22c8      	movs	r2, #200	; 0xc8
 8000690:	4692      	mov	sl, r2
 8000692:	44a2      	add	sl, r4
 8000694:	52a1      	strh	r1, [r4, r2]
 8000696:	4652      	mov	r2, sl
 8000698:	9e01      	ldr	r6, [sp, #4]
 800069a:	8056      	strh	r6, [r2, #2]
 800069c:	22cc      	movs	r2, #204	; 0xcc
 800069e:	4692      	mov	sl, r2
 80006a0:	465e      	mov	r6, fp
 80006a2:	44a2      	add	sl, r4
 80006a4:	52a6      	strh	r6, [r4, r2]
 80006a6:	4652      	mov	r2, sl
 80006a8:	8053      	strh	r3, [r2, #2]
 80006aa:	22d0      	movs	r2, #208	; 0xd0
 80006ac:	4692      	mov	sl, r2
 80006ae:	464e      	mov	r6, r9
 80006b0:	44a2      	add	sl, r4
 80006b2:	52a6      	strh	r6, [r4, r2]
 80006b4:	4652      	mov	r2, sl
 80006b6:	4646      	mov	r6, r8
 80006b8:	8056      	strh	r6, [r2, #2]
 80006ba:	22d4      	movs	r2, #212	; 0xd4
 80006bc:	4692      	mov	sl, r2
 80006be:	4666      	mov	r6, ip
 80006c0:	44a2      	add	sl, r4
 80006c2:	52a6      	strh	r6, [r4, r2]
 80006c4:	4652      	mov	r2, sl
 80006c6:	8050      	strh	r0, [r2, #2]
 80006c8:	22d8      	movs	r2, #216	; 0xd8
 80006ca:	4692      	mov	sl, r2
 80006cc:	44a2      	add	sl, r4
 80006ce:	52a1      	strh	r1, [r4, r2]
 80006d0:	4652      	mov	r2, sl
 80006d2:	9e01      	ldr	r6, [sp, #4]
 80006d4:	8056      	strh	r6, [r2, #2]
 80006d6:	22dc      	movs	r2, #220	; 0xdc
 80006d8:	4692      	mov	sl, r2
 80006da:	465e      	mov	r6, fp
 80006dc:	44a2      	add	sl, r4
 80006de:	52a6      	strh	r6, [r4, r2]
 80006e0:	4652      	mov	r2, sl
 80006e2:	8053      	strh	r3, [r2, #2]
 80006e4:	22e0      	movs	r2, #224	; 0xe0
 80006e6:	4692      	mov	sl, r2
 80006e8:	464e      	mov	r6, r9
 80006ea:	44a2      	add	sl, r4
 80006ec:	52a6      	strh	r6, [r4, r2]
 80006ee:	4652      	mov	r2, sl
 80006f0:	4646      	mov	r6, r8
 80006f2:	8056      	strh	r6, [r2, #2]
 80006f4:	22e4      	movs	r2, #228	; 0xe4
 80006f6:	4692      	mov	sl, r2
 80006f8:	4666      	mov	r6, ip
 80006fa:	44a2      	add	sl, r4
 80006fc:	52a6      	strh	r6, [r4, r2]
 80006fe:	4652      	mov	r2, sl
 8000700:	8050      	strh	r0, [r2, #2]
 8000702:	22e8      	movs	r2, #232	; 0xe8
 8000704:	4692      	mov	sl, r2
 8000706:	44a2      	add	sl, r4
 8000708:	52a1      	strh	r1, [r4, r2]
 800070a:	4652      	mov	r2, sl
 800070c:	9e01      	ldr	r6, [sp, #4]
 800070e:	8056      	strh	r6, [r2, #2]
 8000710:	22ec      	movs	r2, #236	; 0xec
 8000712:	4692      	mov	sl, r2
 8000714:	465e      	mov	r6, fp
 8000716:	44a2      	add	sl, r4
 8000718:	52a6      	strh	r6, [r4, r2]
 800071a:	4652      	mov	r2, sl
 800071c:	8053      	strh	r3, [r2, #2]
 800071e:	22f0      	movs	r2, #240	; 0xf0
 8000720:	4692      	mov	sl, r2
 8000722:	464e      	mov	r6, r9
 8000724:	44a2      	add	sl, r4
 8000726:	52a6      	strh	r6, [r4, r2]
 8000728:	4652      	mov	r2, sl
 800072a:	4646      	mov	r6, r8
 800072c:	8056      	strh	r6, [r2, #2]
 800072e:	22f4      	movs	r2, #244	; 0xf4
 8000730:	4692      	mov	sl, r2
 8000732:	4666      	mov	r6, ip
 8000734:	44a2      	add	sl, r4
 8000736:	52a6      	strh	r6, [r4, r2]
 8000738:	4652      	mov	r2, sl
 800073a:	8050      	strh	r0, [r2, #2]
 800073c:	22f8      	movs	r2, #248	; 0xf8
 800073e:	4692      	mov	sl, r2
 8000740:	44a2      	add	sl, r4
 8000742:	52a1      	strh	r1, [r4, r2]
 8000744:	4652      	mov	r2, sl
 8000746:	9e01      	ldr	r6, [sp, #4]
 8000748:	8056      	strh	r6, [r2, #2]
 800074a:	22fc      	movs	r2, #252	; 0xfc
 800074c:	4692      	mov	sl, r2
 800074e:	465e      	mov	r6, fp
 8000750:	44a2      	add	sl, r4
 8000752:	52a6      	strh	r6, [r4, r2]
 8000754:	4652      	mov	r2, sl
 8000756:	8053      	strh	r3, [r2, #2]
 8000758:	2280      	movs	r2, #128	; 0x80
 800075a:	464e      	mov	r6, r9
 800075c:	0052      	lsls	r2, r2, #1
 800075e:	52a6      	strh	r6, [r4, r2]
 8000760:	4646      	mov	r6, r8
 8000762:	18a2      	adds	r2, r4, r2
 8000764:	8056      	strh	r6, [r2, #2]
 8000766:	2282      	movs	r2, #130	; 0x82
 8000768:	4666      	mov	r6, ip
 800076a:	0052      	lsls	r2, r2, #1
 800076c:	52a6      	strh	r6, [r4, r2]
 800076e:	18a2      	adds	r2, r4, r2
 8000770:	8050      	strh	r0, [r2, #2]
 8000772:	2284      	movs	r2, #132	; 0x84
 8000774:	0052      	lsls	r2, r2, #1
 8000776:	4692      	mov	sl, r2
 8000778:	44a2      	add	sl, r4
 800077a:	52a1      	strh	r1, [r4, r2]
 800077c:	4652      	mov	r2, sl
 800077e:	9e01      	ldr	r6, [sp, #4]
 8000780:	8056      	strh	r6, [r2, #2]
 8000782:	2286      	movs	r2, #134	; 0x86
 8000784:	0052      	lsls	r2, r2, #1
 8000786:	4692      	mov	sl, r2
 8000788:	465e      	mov	r6, fp
 800078a:	44a2      	add	sl, r4
 800078c:	52a6      	strh	r6, [r4, r2]
 800078e:	4652      	mov	r2, sl
 8000790:	8053      	strh	r3, [r2, #2]
 8000792:	2288      	movs	r2, #136	; 0x88
 8000794:	0052      	lsls	r2, r2, #1
 8000796:	4692      	mov	sl, r2
 8000798:	464e      	mov	r6, r9
 800079a:	44a2      	add	sl, r4
 800079c:	52a6      	strh	r6, [r4, r2]
 800079e:	4652      	mov	r2, sl
 80007a0:	4646      	mov	r6, r8
 80007a2:	8056      	strh	r6, [r2, #2]
 80007a4:	228a      	movs	r2, #138	; 0x8a
 80007a6:	0052      	lsls	r2, r2, #1
 80007a8:	4692      	mov	sl, r2
 80007aa:	4666      	mov	r6, ip
 80007ac:	44a2      	add	sl, r4
 80007ae:	52a6      	strh	r6, [r4, r2]
 80007b0:	4652      	mov	r2, sl
 80007b2:	8050      	strh	r0, [r2, #2]
 80007b4:	228c      	movs	r2, #140	; 0x8c
 80007b6:	0052      	lsls	r2, r2, #1
 80007b8:	4692      	mov	sl, r2
 80007ba:	44a2      	add	sl, r4
 80007bc:	52a1      	strh	r1, [r4, r2]
 80007be:	4652      	mov	r2, sl
 80007c0:	9e01      	ldr	r6, [sp, #4]
 80007c2:	8056      	strh	r6, [r2, #2]
 80007c4:	228e      	movs	r2, #142	; 0x8e
 80007c6:	0052      	lsls	r2, r2, #1
 80007c8:	4692      	mov	sl, r2
 80007ca:	465e      	mov	r6, fp
 80007cc:	44a2      	add	sl, r4
 80007ce:	52a6      	strh	r6, [r4, r2]
 80007d0:	4652      	mov	r2, sl
 80007d2:	8053      	strh	r3, [r2, #2]
 80007d4:	2290      	movs	r2, #144	; 0x90
 80007d6:	0052      	lsls	r2, r2, #1
 80007d8:	4692      	mov	sl, r2
 80007da:	464e      	mov	r6, r9
 80007dc:	44a2      	add	sl, r4
 80007de:	52a6      	strh	r6, [r4, r2]
 80007e0:	4652      	mov	r2, sl
 80007e2:	4646      	mov	r6, r8
 80007e4:	8056      	strh	r6, [r2, #2]
 80007e6:	2292      	movs	r2, #146	; 0x92
 80007e8:	0052      	lsls	r2, r2, #1
 80007ea:	4692      	mov	sl, r2
 80007ec:	4666      	mov	r6, ip
 80007ee:	44a2      	add	sl, r4
 80007f0:	52a6      	strh	r6, [r4, r2]
 80007f2:	4652      	mov	r2, sl
 80007f4:	8050      	strh	r0, [r2, #2]
 80007f6:	2294      	movs	r2, #148	; 0x94
 80007f8:	0052      	lsls	r2, r2, #1
 80007fa:	4692      	mov	sl, r2
 80007fc:	44a2      	add	sl, r4
 80007fe:	52a1      	strh	r1, [r4, r2]
 8000800:	4652      	mov	r2, sl
 8000802:	9e01      	ldr	r6, [sp, #4]
 8000804:	8056      	strh	r6, [r2, #2]
 8000806:	2296      	movs	r2, #150	; 0x96
 8000808:	0052      	lsls	r2, r2, #1
 800080a:	4692      	mov	sl, r2
 800080c:	465e      	mov	r6, fp
 800080e:	44a2      	add	sl, r4
 8000810:	52a6      	strh	r6, [r4, r2]
 8000812:	4652      	mov	r2, sl
 8000814:	8053      	strh	r3, [r2, #2]
 8000816:	2298      	movs	r2, #152	; 0x98
 8000818:	0052      	lsls	r2, r2, #1
 800081a:	4692      	mov	sl, r2
 800081c:	464e      	mov	r6, r9
 800081e:	44a2      	add	sl, r4
 8000820:	52a6      	strh	r6, [r4, r2]
 8000822:	4652      	mov	r2, sl
 8000824:	4646      	mov	r6, r8
 8000826:	8056      	strh	r6, [r2, #2]
 8000828:	229a      	movs	r2, #154	; 0x9a
 800082a:	0052      	lsls	r2, r2, #1
 800082c:	4692      	mov	sl, r2
 800082e:	4666      	mov	r6, ip
 8000830:	44a2      	add	sl, r4
 8000832:	52a6      	strh	r6, [r4, r2]
 8000834:	4652      	mov	r2, sl
 8000836:	8050      	strh	r0, [r2, #2]
 8000838:	229c      	movs	r2, #156	; 0x9c
 800083a:	0052      	lsls	r2, r2, #1
 800083c:	4692      	mov	sl, r2
 800083e:	44a2      	add	sl, r4
 8000840:	52a1      	strh	r1, [r4, r2]
 8000842:	4652      	mov	r2, sl
 8000844:	9e01      	ldr	r6, [sp, #4]
 8000846:	8056      	strh	r6, [r2, #2]
 8000848:	229e      	movs	r2, #158	; 0x9e
 800084a:	0052      	lsls	r2, r2, #1
 800084c:	4692      	mov	sl, r2
 800084e:	465e      	mov	r6, fp
 8000850:	44a2      	add	sl, r4
 8000852:	52a6      	strh	r6, [r4, r2]
 8000854:	4652      	mov	r2, sl
 8000856:	8053      	strh	r3, [r2, #2]
 8000858:	22a0      	movs	r2, #160	; 0xa0
 800085a:	0052      	lsls	r2, r2, #1
 800085c:	464e      	mov	r6, r9
 800085e:	4691      	mov	r9, r2
 8000860:	44a1      	add	r9, r4
 8000862:	52a6      	strh	r6, [r4, r2]
 8000864:	464a      	mov	r2, r9
 8000866:	4646      	mov	r6, r8
 8000868:	8056      	strh	r6, [r2, #2]
 800086a:	22a2      	movs	r2, #162	; 0xa2
 800086c:	0052      	lsls	r2, r2, #1
 800086e:	4666      	mov	r6, ip
 8000870:	4694      	mov	ip, r2
 8000872:	44a4      	add	ip, r4
 8000874:	52a6      	strh	r6, [r4, r2]
 8000876:	4662      	mov	r2, ip
 8000878:	8050      	strh	r0, [r2, #2]
 800087a:	20a4      	movs	r0, #164	; 0xa4
 800087c:	0040      	lsls	r0, r0, #1
 800087e:	5221      	strh	r1, [r4, r0]
 8000880:	9a01      	ldr	r2, [sp, #4]
 8000882:	1821      	adds	r1, r4, r0
 8000884:	804a      	strh	r2, [r1, #2]
 8000886:	22a6      	movs	r2, #166	; 0xa6
 8000888:	4659      	mov	r1, fp
 800088a:	0052      	lsls	r2, r2, #1
 800088c:	52a1      	strh	r1, [r4, r2]
 800088e:	0022      	movs	r2, r4
 8000890:	324d      	adds	r2, #77	; 0x4d
 8000892:	32ff      	adds	r2, #255	; 0xff
 8000894:	8053      	strh	r3, [r2, #2]
 8000896:	2301      	movs	r3, #1
 8000898:	0022      	movs	r2, r4
 800089a:	703b      	strb	r3, [r7, #0]
 800089c:	2100      	movs	r1, #0
 800089e:	23d8      	movs	r3, #216	; 0xd8
 80008a0:	48b4      	ldr	r0, [pc, #720]	; (8000b74 <main+0x914>)
 80008a2:	f001 fd59 	bl	8002358 <HAL_TIM_PWM_Start_DMA>
 80008a6:	4bb4      	ldr	r3, [pc, #720]	; (8000b78 <main+0x918>)
 80008a8:	781b      	ldrb	r3, [r3, #0]
 80008aa:	b2db      	uxtb	r3, r3
 80008ac:	469a      	mov	sl, r3
 80008ae:	4bb3      	ldr	r3, [pc, #716]	; (8000b7c <main+0x91c>)
 80008b0:	781b      	ldrb	r3, [r3, #0]
 80008b2:	2b00      	cmp	r3, #0
 80008b4:	d000      	beq.n	80008b8 <main+0x658>
 80008b6:	e5c7      	b.n	8000448 <main+0x1e8>
 80008b8:	9e02      	ldr	r6, [sp, #8]
 80008ba:	e5ce      	b.n	800045a <main+0x1fa>
 80008bc:	9b06      	ldr	r3, [sp, #24]
 80008be:	2b00      	cmp	r3, #0
 80008c0:	d016      	beq.n	80008f0 <main+0x690>
 80008c2:	2360      	movs	r3, #96	; 0x60
 80008c4:	2213      	movs	r2, #19
 80008c6:	52e2      	strh	r2, [r4, r3]
 80008c8:	3b2f      	subs	r3, #47	; 0x2f
 80008ca:	2200      	movs	r2, #0
 80008cc:	9904      	ldr	r1, [sp, #16]
 80008ce:	3201      	adds	r2, #1
 80008d0:	c120      	stmia	r1!, {r5}
 80008d2:	42b2      	cmp	r2, r6
 80008d4:	d3fb      	bcc.n	80008ce <main+0x66e>
 80008d6:	9a07      	ldr	r2, [sp, #28]
 80008d8:	9908      	ldr	r1, [sp, #32]
 80008da:	4694      	mov	ip, r2
 80008dc:	9a05      	ldr	r2, [sp, #20]
 80008de:	4463      	add	r3, ip
 80008e0:	9602      	str	r6, [sp, #8]
 80008e2:	b29b      	uxth	r3, r3
 80008e4:	428a      	cmp	r2, r1
 80008e6:	d0d6      	beq.n	8000896 <main+0x636>
 80008e8:	2213      	movs	r2, #19
 80008ea:	005b      	lsls	r3, r3, #1
 80008ec:	52e2      	strh	r2, [r4, r3]
 80008ee:	e7d2      	b.n	8000896 <main+0x636>
 80008f0:	2330      	movs	r3, #48	; 0x30
 80008f2:	e7ea      	b.n	80008ca <main+0x66a>
 80008f4:	2360      	movs	r3, #96	; 0x60
 80008f6:	464a      	mov	r2, r9
 80008f8:	52e2      	strh	r2, [r4, r3]
 80008fa:	4642      	mov	r2, r8
 80008fc:	3302      	adds	r3, #2
 80008fe:	52e2      	strh	r2, [r4, r3]
 8000900:	4662      	mov	r2, ip
 8000902:	3302      	adds	r3, #2
 8000904:	52e2      	strh	r2, [r4, r3]
 8000906:	3302      	adds	r3, #2
 8000908:	52e0      	strh	r0, [r4, r3]
 800090a:	3302      	adds	r3, #2
 800090c:	52e1      	strh	r1, [r4, r3]
 800090e:	9a03      	ldr	r2, [sp, #12]
 8000910:	3302      	adds	r3, #2
 8000912:	52e6      	strh	r6, [r4, r3]
 8000914:	3302      	adds	r3, #2
 8000916:	52e2      	strh	r2, [r4, r3]
 8000918:	465a      	mov	r2, fp
 800091a:	3302      	adds	r3, #2
 800091c:	52e2      	strh	r2, [r4, r3]
 800091e:	464a      	mov	r2, r9
 8000920:	3302      	adds	r3, #2
 8000922:	52e2      	strh	r2, [r4, r3]
 8000924:	4642      	mov	r2, r8
 8000926:	3302      	adds	r3, #2
 8000928:	52e2      	strh	r2, [r4, r3]
 800092a:	4662      	mov	r2, ip
 800092c:	3302      	adds	r3, #2
 800092e:	52e2      	strh	r2, [r4, r3]
 8000930:	3302      	adds	r3, #2
 8000932:	52e0      	strh	r0, [r4, r3]
 8000934:	3302      	adds	r3, #2
 8000936:	52e1      	strh	r1, [r4, r3]
 8000938:	9a03      	ldr	r2, [sp, #12]
 800093a:	3302      	adds	r3, #2
 800093c:	52e6      	strh	r6, [r4, r3]
 800093e:	3302      	adds	r3, #2
 8000940:	52e2      	strh	r2, [r4, r3]
 8000942:	465a      	mov	r2, fp
 8000944:	3302      	adds	r3, #2
 8000946:	52e2      	strh	r2, [r4, r3]
 8000948:	464a      	mov	r2, r9
 800094a:	3302      	adds	r3, #2
 800094c:	52e2      	strh	r2, [r4, r3]
 800094e:	4642      	mov	r2, r8
 8000950:	3302      	adds	r3, #2
 8000952:	52e2      	strh	r2, [r4, r3]
 8000954:	4662      	mov	r2, ip
 8000956:	3302      	adds	r3, #2
 8000958:	52e2      	strh	r2, [r4, r3]
 800095a:	3302      	adds	r3, #2
 800095c:	52e0      	strh	r0, [r4, r3]
 800095e:	3302      	adds	r3, #2
 8000960:	52e1      	strh	r1, [r4, r3]
 8000962:	9a03      	ldr	r2, [sp, #12]
 8000964:	3302      	adds	r3, #2
 8000966:	52e6      	strh	r6, [r4, r3]
 8000968:	3302      	adds	r3, #2
 800096a:	52e2      	strh	r2, [r4, r3]
 800096c:	465a      	mov	r2, fp
 800096e:	3302      	adds	r3, #2
 8000970:	52e2      	strh	r2, [r4, r3]
 8000972:	464a      	mov	r2, r9
 8000974:	3302      	adds	r3, #2
 8000976:	52e2      	strh	r2, [r4, r3]
 8000978:	4642      	mov	r2, r8
 800097a:	3302      	adds	r3, #2
 800097c:	52e2      	strh	r2, [r4, r3]
 800097e:	4662      	mov	r2, ip
 8000980:	3302      	adds	r3, #2
 8000982:	52e2      	strh	r2, [r4, r3]
 8000984:	3302      	adds	r3, #2
 8000986:	52e0      	strh	r0, [r4, r3]
 8000988:	3302      	adds	r3, #2
 800098a:	52e1      	strh	r1, [r4, r3]
 800098c:	3302      	adds	r3, #2
 800098e:	52e6      	strh	r6, [r4, r3]
 8000990:	9a03      	ldr	r2, [sp, #12]
 8000992:	3302      	adds	r3, #2
 8000994:	52e2      	strh	r2, [r4, r3]
 8000996:	465a      	mov	r2, fp
 8000998:	3302      	adds	r3, #2
 800099a:	52e2      	strh	r2, [r4, r3]
 800099c:	464a      	mov	r2, r9
 800099e:	3302      	adds	r3, #2
 80009a0:	52e2      	strh	r2, [r4, r3]
 80009a2:	4642      	mov	r2, r8
 80009a4:	3302      	adds	r3, #2
 80009a6:	52e2      	strh	r2, [r4, r3]
 80009a8:	4662      	mov	r2, ip
 80009aa:	3302      	adds	r3, #2
 80009ac:	52e2      	strh	r2, [r4, r3]
 80009ae:	3302      	adds	r3, #2
 80009b0:	52e0      	strh	r0, [r4, r3]
 80009b2:	3302      	adds	r3, #2
 80009b4:	52e1      	strh	r1, [r4, r3]
 80009b6:	9a03      	ldr	r2, [sp, #12]
 80009b8:	3302      	adds	r3, #2
 80009ba:	52e6      	strh	r6, [r4, r3]
 80009bc:	3302      	adds	r3, #2
 80009be:	52e2      	strh	r2, [r4, r3]
 80009c0:	465a      	mov	r2, fp
 80009c2:	3302      	adds	r3, #2
 80009c4:	52e2      	strh	r2, [r4, r3]
 80009c6:	464a      	mov	r2, r9
 80009c8:	3302      	adds	r3, #2
 80009ca:	52e2      	strh	r2, [r4, r3]
 80009cc:	4642      	mov	r2, r8
 80009ce:	3302      	adds	r3, #2
 80009d0:	52e2      	strh	r2, [r4, r3]
 80009d2:	4662      	mov	r2, ip
 80009d4:	3302      	adds	r3, #2
 80009d6:	52e2      	strh	r2, [r4, r3]
 80009d8:	3302      	adds	r3, #2
 80009da:	52e0      	strh	r0, [r4, r3]
 80009dc:	3302      	adds	r3, #2
 80009de:	52e1      	strh	r1, [r4, r3]
 80009e0:	9a03      	ldr	r2, [sp, #12]
 80009e2:	3302      	adds	r3, #2
 80009e4:	52e6      	strh	r6, [r4, r3]
 80009e6:	3302      	adds	r3, #2
 80009e8:	52e2      	strh	r2, [r4, r3]
 80009ea:	465a      	mov	r2, fp
 80009ec:	3302      	adds	r3, #2
 80009ee:	52e2      	strh	r2, [r4, r3]
 80009f0:	464a      	mov	r2, r9
 80009f2:	3302      	adds	r3, #2
 80009f4:	52e2      	strh	r2, [r4, r3]
 80009f6:	4642      	mov	r2, r8
 80009f8:	3302      	adds	r3, #2
 80009fa:	52e2      	strh	r2, [r4, r3]
 80009fc:	4662      	mov	r2, ip
 80009fe:	3302      	adds	r3, #2
 8000a00:	52e2      	strh	r2, [r4, r3]
 8000a02:	3302      	adds	r3, #2
 8000a04:	52e0      	strh	r0, [r4, r3]
 8000a06:	3302      	adds	r3, #2
 8000a08:	52e1      	strh	r1, [r4, r3]
 8000a0a:	9a03      	ldr	r2, [sp, #12]
 8000a0c:	3302      	adds	r3, #2
 8000a0e:	52e6      	strh	r6, [r4, r3]
 8000a10:	3302      	adds	r3, #2
 8000a12:	52e2      	strh	r2, [r4, r3]
 8000a14:	465a      	mov	r2, fp
 8000a16:	3302      	adds	r3, #2
 8000a18:	52e2      	strh	r2, [r4, r3]
 8000a1a:	464a      	mov	r2, r9
 8000a1c:	3302      	adds	r3, #2
 8000a1e:	52e2      	strh	r2, [r4, r3]
 8000a20:	4642      	mov	r2, r8
 8000a22:	3302      	adds	r3, #2
 8000a24:	52e2      	strh	r2, [r4, r3]
 8000a26:	4662      	mov	r2, ip
 8000a28:	3302      	adds	r3, #2
 8000a2a:	52e2      	strh	r2, [r4, r3]
 8000a2c:	3302      	adds	r3, #2
 8000a2e:	52e0      	strh	r0, [r4, r3]
 8000a30:	3302      	adds	r3, #2
 8000a32:	52e1      	strh	r1, [r4, r3]
 8000a34:	9a03      	ldr	r2, [sp, #12]
 8000a36:	3302      	adds	r3, #2
 8000a38:	52e6      	strh	r6, [r4, r3]
 8000a3a:	3302      	adds	r3, #2
 8000a3c:	52e2      	strh	r2, [r4, r3]
 8000a3e:	465a      	mov	r2, fp
 8000a40:	3302      	adds	r3, #2
 8000a42:	52e2      	strh	r2, [r4, r3]
 8000a44:	464a      	mov	r2, r9
 8000a46:	3302      	adds	r3, #2
 8000a48:	52e2      	strh	r2, [r4, r3]
 8000a4a:	4642      	mov	r2, r8
 8000a4c:	3302      	adds	r3, #2
 8000a4e:	52e2      	strh	r2, [r4, r3]
 8000a50:	4662      	mov	r2, ip
 8000a52:	3302      	adds	r3, #2
 8000a54:	52e2      	strh	r2, [r4, r3]
 8000a56:	3302      	adds	r3, #2
 8000a58:	52e0      	strh	r0, [r4, r3]
 8000a5a:	3302      	adds	r3, #2
 8000a5c:	52e1      	strh	r1, [r4, r3]
 8000a5e:	9a03      	ldr	r2, [sp, #12]
 8000a60:	3302      	adds	r3, #2
 8000a62:	52e6      	strh	r6, [r4, r3]
 8000a64:	3302      	adds	r3, #2
 8000a66:	52e2      	strh	r2, [r4, r3]
 8000a68:	465a      	mov	r2, fp
 8000a6a:	3302      	adds	r3, #2
 8000a6c:	52e2      	strh	r2, [r4, r3]
 8000a6e:	464a      	mov	r2, r9
 8000a70:	3302      	adds	r3, #2
 8000a72:	52e2      	strh	r2, [r4, r3]
 8000a74:	4642      	mov	r2, r8
 8000a76:	3302      	adds	r3, #2
 8000a78:	52e2      	strh	r2, [r4, r3]
 8000a7a:	4662      	mov	r2, ip
 8000a7c:	3302      	adds	r3, #2
 8000a7e:	52e2      	strh	r2, [r4, r3]
 8000a80:	3302      	adds	r3, #2
 8000a82:	52e0      	strh	r0, [r4, r3]
 8000a84:	3302      	adds	r3, #2
 8000a86:	52e1      	strh	r1, [r4, r3]
 8000a88:	9a03      	ldr	r2, [sp, #12]
 8000a8a:	3302      	adds	r3, #2
 8000a8c:	52e6      	strh	r6, [r4, r3]
 8000a8e:	3302      	adds	r3, #2
 8000a90:	52e2      	strh	r2, [r4, r3]
 8000a92:	465a      	mov	r2, fp
 8000a94:	3302      	adds	r3, #2
 8000a96:	52e2      	strh	r2, [r4, r3]
 8000a98:	464a      	mov	r2, r9
 8000a9a:	3302      	adds	r3, #2
 8000a9c:	52e2      	strh	r2, [r4, r3]
 8000a9e:	4642      	mov	r2, r8
 8000aa0:	3302      	adds	r3, #2
 8000aa2:	52e2      	strh	r2, [r4, r3]
 8000aa4:	4662      	mov	r2, ip
 8000aa6:	3302      	adds	r3, #2
 8000aa8:	52e2      	strh	r2, [r4, r3]
 8000aaa:	3302      	adds	r3, #2
 8000aac:	52e0      	strh	r0, [r4, r3]
 8000aae:	3302      	adds	r3, #2
 8000ab0:	52e1      	strh	r1, [r4, r3]
 8000ab2:	9a03      	ldr	r2, [sp, #12]
 8000ab4:	3302      	adds	r3, #2
 8000ab6:	52e6      	strh	r6, [r4, r3]
 8000ab8:	3302      	adds	r3, #2
 8000aba:	52e2      	strh	r2, [r4, r3]
 8000abc:	465a      	mov	r2, fp
 8000abe:	3302      	adds	r3, #2
 8000ac0:	52e2      	strh	r2, [r4, r3]
 8000ac2:	464a      	mov	r2, r9
 8000ac4:	3302      	adds	r3, #2
 8000ac6:	52e2      	strh	r2, [r4, r3]
 8000ac8:	4642      	mov	r2, r8
 8000aca:	3302      	adds	r3, #2
 8000acc:	52e2      	strh	r2, [r4, r3]
 8000ace:	4662      	mov	r2, ip
 8000ad0:	3302      	adds	r3, #2
 8000ad2:	52e2      	strh	r2, [r4, r3]
 8000ad4:	3302      	adds	r3, #2
 8000ad6:	52e0      	strh	r0, [r4, r3]
 8000ad8:	3302      	adds	r3, #2
 8000ada:	52e1      	strh	r1, [r4, r3]
 8000adc:	9a03      	ldr	r2, [sp, #12]
 8000ade:	3302      	adds	r3, #2
 8000ae0:	52e6      	strh	r6, [r4, r3]
 8000ae2:	3302      	adds	r3, #2
 8000ae4:	52e2      	strh	r2, [r4, r3]
 8000ae6:	465a      	mov	r2, fp
 8000ae8:	3302      	adds	r3, #2
 8000aea:	52e2      	strh	r2, [r4, r3]
 8000aec:	464a      	mov	r2, r9
 8000aee:	3302      	adds	r3, #2
 8000af0:	52e2      	strh	r2, [r4, r3]
 8000af2:	4642      	mov	r2, r8
 8000af4:	3302      	adds	r3, #2
 8000af6:	52e2      	strh	r2, [r4, r3]
 8000af8:	4662      	mov	r2, ip
 8000afa:	3302      	adds	r3, #2
 8000afc:	52e2      	strh	r2, [r4, r3]
 8000afe:	3302      	adds	r3, #2
 8000b00:	52e0      	strh	r0, [r4, r3]
 8000b02:	3302      	adds	r3, #2
 8000b04:	52e1      	strh	r1, [r4, r3]
 8000b06:	9a03      	ldr	r2, [sp, #12]
 8000b08:	3302      	adds	r3, #2
 8000b0a:	52e6      	strh	r6, [r4, r3]
 8000b0c:	3302      	adds	r3, #2
 8000b0e:	52e2      	strh	r2, [r4, r3]
 8000b10:	465a      	mov	r2, fp
 8000b12:	3302      	adds	r3, #2
 8000b14:	52e2      	strh	r2, [r4, r3]
 8000b16:	464a      	mov	r2, r9
 8000b18:	3302      	adds	r3, #2
 8000b1a:	52e2      	strh	r2, [r4, r3]
 8000b1c:	4642      	mov	r2, r8
 8000b1e:	3302      	adds	r3, #2
 8000b20:	52e2      	strh	r2, [r4, r3]
 8000b22:	4662      	mov	r2, ip
 8000b24:	3302      	adds	r3, #2
 8000b26:	52e2      	strh	r2, [r4, r3]
 8000b28:	3302      	adds	r3, #2
 8000b2a:	52e0      	strh	r0, [r4, r3]
 8000b2c:	3302      	adds	r3, #2
 8000b2e:	52e1      	strh	r1, [r4, r3]
 8000b30:	9a03      	ldr	r2, [sp, #12]
 8000b32:	3302      	adds	r3, #2
 8000b34:	52e6      	strh	r6, [r4, r3]
 8000b36:	3302      	adds	r3, #2
 8000b38:	52e2      	strh	r2, [r4, r3]
 8000b3a:	465a      	mov	r2, fp
 8000b3c:	3302      	adds	r3, #2
 8000b3e:	52e2      	strh	r2, [r4, r3]
 8000b40:	464a      	mov	r2, r9
 8000b42:	3302      	adds	r3, #2
 8000b44:	52e2      	strh	r2, [r4, r3]
 8000b46:	4642      	mov	r2, r8
 8000b48:	3302      	adds	r3, #2
 8000b4a:	52e2      	strh	r2, [r4, r3]
 8000b4c:	4662      	mov	r2, ip
 8000b4e:	3302      	adds	r3, #2
 8000b50:	52e2      	strh	r2, [r4, r3]
 8000b52:	3302      	adds	r3, #2
 8000b54:	52e0      	strh	r0, [r4, r3]
 8000b56:	20a4      	movs	r0, #164	; 0xa4
 8000b58:	0040      	lsls	r0, r0, #1
 8000b5a:	5221      	strh	r1, [r4, r0]
 8000b5c:	21a5      	movs	r1, #165	; 0xa5
 8000b5e:	22a6      	movs	r2, #166	; 0xa6
 8000b60:	0049      	lsls	r1, r1, #1
 8000b62:	5266      	strh	r6, [r4, r1]
 8000b64:	9b03      	ldr	r3, [sp, #12]
 8000b66:	0052      	lsls	r2, r2, #1
 8000b68:	52a3      	strh	r3, [r4, r2]
 8000b6a:	23a7      	movs	r3, #167	; 0xa7
 8000b6c:	465a      	mov	r2, fp
 8000b6e:	005b      	lsls	r3, r3, #1
 8000b70:	52e2      	strh	r2, [r4, r3]
 8000b72:	e690      	b.n	8000896 <main+0x636>
 8000b74:	20000058 	.word	0x20000058
 8000b78:	20000029 	.word	0x20000029
 8000b7c:	20000028 	.word	0x20000028

08000b80 <HAL_CAN_RxFifo0MsgPendingCallback>:
 8000b80:	b570      	push	{r4, r5, r6, lr}
 8000b82:	4c16      	ldr	r4, [pc, #88]	; (8000bdc <HAL_CAN_RxFifo0MsgPendingCallback+0x5c>)
 8000b84:	4d16      	ldr	r5, [pc, #88]	; (8000be0 <HAL_CAN_RxFifo0MsgPendingCallback+0x60>)
 8000b86:	0022      	movs	r2, r4
 8000b88:	002b      	movs	r3, r5
 8000b8a:	2100      	movs	r1, #0
 8000b8c:	f000 fba0 	bl	80012d0 <HAL_CAN_GetRxMessage>
 8000b90:	6923      	ldr	r3, [r4, #16]
 8000b92:	2b08      	cmp	r3, #8
 8000b94:	d000      	beq.n	8000b98 <HAL_CAN_RxFifo0MsgPendingCallback+0x18>
 8000b96:	bd70      	pop	{r4, r5, r6, pc}
 8000b98:	786b      	ldrb	r3, [r5, #1]
 8000b9a:	2b04      	cmp	r3, #4
 8000b9c:	d1fb      	bne.n	8000b96 <HAL_CAN_RxFifo0MsgPendingCallback+0x16>
 8000b9e:	782b      	ldrb	r3, [r5, #0]
 8000ba0:	2b00      	cmp	r3, #0
 8000ba2:	d1f8      	bne.n	8000b96 <HAL_CAN_RxFifo0MsgPendingCallback+0x16>
 8000ba4:	78aa      	ldrb	r2, [r5, #2]
 8000ba6:	2a23      	cmp	r2, #35	; 0x23
 8000ba8:	d011      	beq.n	8000bce <HAL_CAN_RxFifo0MsgPendingCallback+0x4e>
 8000baa:	d907      	bls.n	8000bbc <HAL_CAN_RxFifo0MsgPendingCallback+0x3c>
 8000bac:	2a42      	cmp	r2, #66	; 0x42
 8000bae:	d011      	beq.n	8000bd4 <HAL_CAN_RxFifo0MsgPendingCallback+0x54>
 8000bb0:	2a62      	cmp	r2, #98	; 0x62
 8000bb2:	d1f0      	bne.n	8000b96 <HAL_CAN_RxFifo0MsgPendingCallback+0x16>
 8000bb4:	2201      	movs	r2, #1
 8000bb6:	4b0b      	ldr	r3, [pc, #44]	; (8000be4 <HAL_CAN_RxFifo0MsgPendingCallback+0x64>)
 8000bb8:	701a      	strb	r2, [r3, #0]
 8000bba:	e7ec      	b.n	8000b96 <HAL_CAN_RxFifo0MsgPendingCallback+0x16>
 8000bbc:	2a22      	cmp	r2, #34	; 0x22
 8000bbe:	d1ea      	bne.n	8000b96 <HAL_CAN_RxFifo0MsgPendingCallback+0x16>
 8000bc0:	2201      	movs	r2, #1
 8000bc2:	4b09      	ldr	r3, [pc, #36]	; (8000be8 <HAL_CAN_RxFifo0MsgPendingCallback+0x68>)
 8000bc4:	701a      	strb	r2, [r3, #0]
 8000bc6:	78ea      	ldrb	r2, [r5, #3]
 8000bc8:	4b08      	ldr	r3, [pc, #32]	; (8000bec <HAL_CAN_RxFifo0MsgPendingCallback+0x6c>)
 8000bca:	701a      	strb	r2, [r3, #0]
 8000bcc:	e7e3      	b.n	8000b96 <HAL_CAN_RxFifo0MsgPendingCallback+0x16>
 8000bce:	4a06      	ldr	r2, [pc, #24]	; (8000be8 <HAL_CAN_RxFifo0MsgPendingCallback+0x68>)
 8000bd0:	7013      	strb	r3, [r2, #0]
 8000bd2:	e7e0      	b.n	8000b96 <HAL_CAN_RxFifo0MsgPendingCallback+0x16>
 8000bd4:	4a03      	ldr	r2, [pc, #12]	; (8000be4 <HAL_CAN_RxFifo0MsgPendingCallback+0x64>)
 8000bd6:	7013      	strb	r3, [r2, #0]
 8000bd8:	e7dd      	b.n	8000b96 <HAL_CAN_RxFifo0MsgPendingCallback+0x16>
 8000bda:	46c0      	nop			; (mov r8, r8)
 8000bdc:	2000038c 	.word	0x2000038c
 8000be0:	2000028c 	.word	0x2000028c
 8000be4:	20000028 	.word	0x20000028
 8000be8:	2000002b 	.word	0x2000002b
 8000bec:	20000029 	.word	0x20000029

08000bf0 <HAL_CAN_ErrorCallback>:
 8000bf0:	46c0      	nop			; (mov r8, r8)
 8000bf2:	4770      	bx	lr

08000bf4 <HAL_TIM_PWM_PulseFinishedCallback>:
 8000bf4:	2200      	movs	r2, #0
 8000bf6:	4b01      	ldr	r3, [pc, #4]	; (8000bfc <HAL_TIM_PWM_PulseFinishedCallback+0x8>)
 8000bf8:	701a      	strb	r2, [r3, #0]
 8000bfa:	4770      	bx	lr
 8000bfc:	2000002a 	.word	0x2000002a

08000c00 <HAL_TIM_PeriodElapsedCallback>:
 8000c00:	4b04      	ldr	r3, [pc, #16]	; (8000c14 <HAL_TIM_PeriodElapsedCallback+0x14>)
 8000c02:	4298      	cmp	r0, r3
 8000c04:	d104      	bne.n	8000c10 <HAL_TIM_PeriodElapsedCallback+0x10>
 8000c06:	2101      	movs	r1, #1
 8000c08:	4a03      	ldr	r2, [pc, #12]	; (8000c18 <HAL_TIM_PeriodElapsedCallback+0x18>)
 8000c0a:	7813      	ldrb	r3, [r2, #0]
 8000c0c:	404b      	eors	r3, r1
 8000c0e:	7013      	strb	r3, [r2, #0]
 8000c10:	4770      	bx	lr
 8000c12:	46c0      	nop			; (mov r8, r8)
 8000c14:	200003a8 	.word	0x200003a8
 8000c18:	2000002c 	.word	0x2000002c

08000c1c <Error_Handler>:
 8000c1c:	4770      	bx	lr
 8000c1e:	46c0      	nop			; (mov r8, r8)

08000c20 <HAL_MspInit>:
 8000c20:	2201      	movs	r2, #1
 8000c22:	4b0c      	ldr	r3, [pc, #48]	; (8000c54 <HAL_MspInit+0x34>)
 8000c24:	b082      	sub	sp, #8
 8000c26:	6999      	ldr	r1, [r3, #24]
 8000c28:	4311      	orrs	r1, r2
 8000c2a:	6199      	str	r1, [r3, #24]
 8000c2c:	6999      	ldr	r1, [r3, #24]
 8000c2e:	400a      	ands	r2, r1
 8000c30:	2180      	movs	r1, #128	; 0x80
 8000c32:	9200      	str	r2, [sp, #0]
 8000c34:	9a00      	ldr	r2, [sp, #0]
 8000c36:	69da      	ldr	r2, [r3, #28]
 8000c38:	0549      	lsls	r1, r1, #21
 8000c3a:	430a      	orrs	r2, r1
 8000c3c:	61da      	str	r2, [r3, #28]
 8000c3e:	69db      	ldr	r3, [r3, #28]
 8000c40:	4a05      	ldr	r2, [pc, #20]	; (8000c58 <HAL_MspInit+0x38>)
 8000c42:	400b      	ands	r3, r1
 8000c44:	2110      	movs	r1, #16
 8000c46:	9301      	str	r3, [sp, #4]
 8000c48:	9b01      	ldr	r3, [sp, #4]
 8000c4a:	6813      	ldr	r3, [r2, #0]
 8000c4c:	430b      	orrs	r3, r1
 8000c4e:	6013      	str	r3, [r2, #0]
 8000c50:	b002      	add	sp, #8
 8000c52:	4770      	bx	lr
 8000c54:	40021000 	.word	0x40021000
 8000c58:	40010000 	.word	0x40010000

08000c5c <HAL_CAN_MspInit>:
 8000c5c:	b570      	push	{r4, r5, r6, lr}
 8000c5e:	0004      	movs	r4, r0
 8000c60:	b088      	sub	sp, #32
 8000c62:	2214      	movs	r2, #20
 8000c64:	2100      	movs	r1, #0
 8000c66:	a803      	add	r0, sp, #12
 8000c68:	f001 ff42 	bl	8002af0 <memset>
 8000c6c:	4b22      	ldr	r3, [pc, #136]	; (8000cf8 <HAL_CAN_MspInit+0x9c>)
 8000c6e:	6822      	ldr	r2, [r4, #0]
 8000c70:	429a      	cmp	r2, r3
 8000c72:	d001      	beq.n	8000c78 <HAL_CAN_MspInit+0x1c>
 8000c74:	b008      	add	sp, #32
 8000c76:	bd70      	pop	{r4, r5, r6, pc}
 8000c78:	2080      	movs	r0, #128	; 0x80
 8000c7a:	4b20      	ldr	r3, [pc, #128]	; (8000cfc <HAL_CAN_MspInit+0xa0>)
 8000c7c:	0480      	lsls	r0, r0, #18
 8000c7e:	69d9      	ldr	r1, [r3, #28]
 8000c80:	2602      	movs	r6, #2
 8000c82:	4301      	orrs	r1, r0
 8000c84:	61d9      	str	r1, [r3, #28]
 8000c86:	69da      	ldr	r2, [r3, #28]
 8000c88:	2503      	movs	r5, #3
 8000c8a:	4002      	ands	r2, r0
 8000c8c:	2080      	movs	r0, #128	; 0x80
 8000c8e:	9200      	str	r2, [sp, #0]
 8000c90:	9a00      	ldr	r2, [sp, #0]
 8000c92:	6959      	ldr	r1, [r3, #20]
 8000c94:	02c0      	lsls	r0, r0, #11
 8000c96:	4301      	orrs	r1, r0
 8000c98:	6159      	str	r1, [r3, #20]
 8000c9a:	2180      	movs	r1, #128	; 0x80
 8000c9c:	695a      	ldr	r2, [r3, #20]
 8000c9e:	0289      	lsls	r1, r1, #10
 8000ca0:	4002      	ands	r2, r0
 8000ca2:	9201      	str	r2, [sp, #4]
 8000ca4:	9a01      	ldr	r2, [sp, #4]
 8000ca6:	695a      	ldr	r2, [r3, #20]
 8000ca8:	2404      	movs	r4, #4
 8000caa:	430a      	orrs	r2, r1
 8000cac:	615a      	str	r2, [r3, #20]
 8000cae:	695b      	ldr	r3, [r3, #20]
 8000cb0:	4813      	ldr	r0, [pc, #76]	; (8000d00 <HAL_CAN_MspInit+0xa4>)
 8000cb2:	400b      	ands	r3, r1
 8000cb4:	9302      	str	r3, [sp, #8]
 8000cb6:	9b02      	ldr	r3, [sp, #8]
 8000cb8:	2380      	movs	r3, #128	; 0x80
 8000cba:	a903      	add	r1, sp, #12
 8000cbc:	005b      	lsls	r3, r3, #1
 8000cbe:	9303      	str	r3, [sp, #12]
 8000cc0:	9604      	str	r6, [sp, #16]
 8000cc2:	9506      	str	r5, [sp, #24]
 8000cc4:	9407      	str	r4, [sp, #28]
 8000cc6:	f000 fe01 	bl	80018cc <HAL_GPIO_Init>
 8000cca:	2380      	movs	r3, #128	; 0x80
 8000ccc:	2090      	movs	r0, #144	; 0x90
 8000cce:	015b      	lsls	r3, r3, #5
 8000cd0:	9303      	str	r3, [sp, #12]
 8000cd2:	2300      	movs	r3, #0
 8000cd4:	a903      	add	r1, sp, #12
 8000cd6:	05c0      	lsls	r0, r0, #23
 8000cd8:	9305      	str	r3, [sp, #20]
 8000cda:	9604      	str	r6, [sp, #16]
 8000cdc:	9506      	str	r5, [sp, #24]
 8000cde:	9407      	str	r4, [sp, #28]
 8000ce0:	f000 fdf4 	bl	80018cc <HAL_GPIO_Init>
 8000ce4:	2200      	movs	r2, #0
 8000ce6:	2100      	movs	r1, #0
 8000ce8:	201e      	movs	r0, #30
 8000cea:	f000 fcd9 	bl	80016a0 <HAL_NVIC_SetPriority>
 8000cee:	201e      	movs	r0, #30
 8000cf0:	f000 fd02 	bl	80016f8 <HAL_NVIC_EnableIRQ>
 8000cf4:	e7be      	b.n	8000c74 <HAL_CAN_MspInit+0x18>
 8000cf6:	46c0      	nop			; (mov r8, r8)
 8000cf8:	40006400 	.word	0x40006400
 8000cfc:	40021000 	.word	0x40021000
 8000d00:	48000400 	.word	0x48000400

08000d04 <HAL_TIM_Base_MspInit>:
 8000d04:	2280      	movs	r2, #128	; 0x80
 8000d06:	b530      	push	{r4, r5, lr}
 8000d08:	6803      	ldr	r3, [r0, #0]
 8000d0a:	b083      	sub	sp, #12
 8000d0c:	0004      	movs	r4, r0
 8000d0e:	05d2      	lsls	r2, r2, #23
 8000d10:	4293      	cmp	r3, r2
 8000d12:	d028      	beq.n	8000d66 <HAL_TIM_Base_MspInit+0x62>
 8000d14:	4a1e      	ldr	r2, [pc, #120]	; (8000d90 <HAL_TIM_Base_MspInit+0x8c>)
 8000d16:	4293      	cmp	r3, r2
 8000d18:	d001      	beq.n	8000d1e <HAL_TIM_Base_MspInit+0x1a>
 8000d1a:	b003      	add	sp, #12
 8000d1c:	bd30      	pop	{r4, r5, pc}
 8000d1e:	2302      	movs	r3, #2
 8000d20:	4a1c      	ldr	r2, [pc, #112]	; (8000d94 <HAL_TIM_Base_MspInit+0x90>)
 8000d22:	4d1d      	ldr	r5, [pc, #116]	; (8000d98 <HAL_TIM_Base_MspInit+0x94>)
 8000d24:	69d1      	ldr	r1, [r2, #28]
 8000d26:	0028      	movs	r0, r5
 8000d28:	4319      	orrs	r1, r3
 8000d2a:	61d1      	str	r1, [r2, #28]
 8000d2c:	69d2      	ldr	r2, [r2, #28]
 8000d2e:	4013      	ands	r3, r2
 8000d30:	9301      	str	r3, [sp, #4]
 8000d32:	9b01      	ldr	r3, [sp, #4]
 8000d34:	4b19      	ldr	r3, [pc, #100]	; (8000d9c <HAL_TIM_Base_MspInit+0x98>)
 8000d36:	2280      	movs	r2, #128	; 0x80
 8000d38:	602b      	str	r3, [r5, #0]
 8000d3a:	2310      	movs	r3, #16
 8000d3c:	606b      	str	r3, [r5, #4]
 8000d3e:	2300      	movs	r3, #0
 8000d40:	60ea      	str	r2, [r5, #12]
 8000d42:	3280      	adds	r2, #128	; 0x80
 8000d44:	60ab      	str	r3, [r5, #8]
 8000d46:	612a      	str	r2, [r5, #16]
 8000d48:	61ab      	str	r3, [r5, #24]
 8000d4a:	2280      	movs	r2, #128	; 0x80
 8000d4c:	2380      	movs	r3, #128	; 0x80
 8000d4e:	00d2      	lsls	r2, r2, #3
 8000d50:	019b      	lsls	r3, r3, #6
 8000d52:	616a      	str	r2, [r5, #20]
 8000d54:	61eb      	str	r3, [r5, #28]
 8000d56:	f000 fcf7 	bl	8001748 <HAL_DMA_Init>
 8000d5a:	2800      	cmp	r0, #0
 8000d5c:	d115      	bne.n	8000d8a <HAL_TIM_Base_MspInit+0x86>
 8000d5e:	6265      	str	r5, [r4, #36]	; 0x24
 8000d60:	63a5      	str	r5, [r4, #56]	; 0x38
 8000d62:	626c      	str	r4, [r5, #36]	; 0x24
 8000d64:	e7d9      	b.n	8000d1a <HAL_TIM_Base_MspInit+0x16>
 8000d66:	2301      	movs	r3, #1
 8000d68:	4a0a      	ldr	r2, [pc, #40]	; (8000d94 <HAL_TIM_Base_MspInit+0x90>)
 8000d6a:	200f      	movs	r0, #15
 8000d6c:	69d1      	ldr	r1, [r2, #28]
 8000d6e:	4319      	orrs	r1, r3
 8000d70:	61d1      	str	r1, [r2, #28]
 8000d72:	69d2      	ldr	r2, [r2, #28]
 8000d74:	2100      	movs	r1, #0
 8000d76:	4013      	ands	r3, r2
 8000d78:	9300      	str	r3, [sp, #0]
 8000d7a:	2200      	movs	r2, #0
 8000d7c:	9b00      	ldr	r3, [sp, #0]
 8000d7e:	f000 fc8f 	bl	80016a0 <HAL_NVIC_SetPriority>
 8000d82:	200f      	movs	r0, #15
 8000d84:	f000 fcb8 	bl	80016f8 <HAL_NVIC_EnableIRQ>
 8000d88:	e7c7      	b.n	8000d1a <HAL_TIM_Base_MspInit+0x16>
 8000d8a:	f7ff ff47 	bl	8000c1c <Error_Handler>
 8000d8e:	e7e6      	b.n	8000d5e <HAL_TIM_Base_MspInit+0x5a>
 8000d90:	40000400 	.word	0x40000400
 8000d94:	40021000 	.word	0x40021000
 8000d98:	20000098 	.word	0x20000098
 8000d9c:	40020044 	.word	0x40020044

08000da0 <HAL_TIM_MspPostInit>:
 8000da0:	b510      	push	{r4, lr}
 8000da2:	0004      	movs	r4, r0
 8000da4:	b086      	sub	sp, #24
 8000da6:	2214      	movs	r2, #20
 8000da8:	2100      	movs	r1, #0
 8000daa:	a801      	add	r0, sp, #4
 8000dac:	f001 fea0 	bl	8002af0 <memset>
 8000db0:	4b0d      	ldr	r3, [pc, #52]	; (8000de8 <HAL_TIM_MspPostInit+0x48>)
 8000db2:	6822      	ldr	r2, [r4, #0]
 8000db4:	429a      	cmp	r2, r3
 8000db6:	d001      	beq.n	8000dbc <HAL_TIM_MspPostInit+0x1c>
 8000db8:	b006      	add	sp, #24
 8000dba:	bd10      	pop	{r4, pc}
 8000dbc:	2080      	movs	r0, #128	; 0x80
 8000dbe:	4a0b      	ldr	r2, [pc, #44]	; (8000dec <HAL_TIM_MspPostInit+0x4c>)
 8000dc0:	0280      	lsls	r0, r0, #10
 8000dc2:	6951      	ldr	r1, [r2, #20]
 8000dc4:	4301      	orrs	r1, r0
 8000dc6:	6151      	str	r1, [r2, #20]
 8000dc8:	6953      	ldr	r3, [r2, #20]
 8000dca:	a901      	add	r1, sp, #4
 8000dcc:	4003      	ands	r3, r0
 8000dce:	9300      	str	r3, [sp, #0]
 8000dd0:	9b00      	ldr	r3, [sp, #0]
 8000dd2:	2340      	movs	r3, #64	; 0x40
 8000dd4:	2090      	movs	r0, #144	; 0x90
 8000dd6:	9301      	str	r3, [sp, #4]
 8000dd8:	3b3e      	subs	r3, #62	; 0x3e
 8000dda:	9302      	str	r3, [sp, #8]
 8000ddc:	05c0      	lsls	r0, r0, #23
 8000dde:	3b01      	subs	r3, #1
 8000de0:	9305      	str	r3, [sp, #20]
 8000de2:	f000 fd73 	bl	80018cc <HAL_GPIO_Init>
 8000de6:	e7e7      	b.n	8000db8 <HAL_TIM_MspPostInit+0x18>
 8000de8:	40000400 	.word	0x40000400
 8000dec:	40021000 	.word	0x40021000

08000df0 <NMI_Handler>:
 8000df0:	4770      	bx	lr
 8000df2:	46c0      	nop			; (mov r8, r8)

08000df4 <HardFault_Handler>:
 8000df4:	e7fe      	b.n	8000df4 <HardFault_Handler>
 8000df6:	46c0      	nop			; (mov r8, r8)

08000df8 <SVC_Handler>:
 8000df8:	4770      	bx	lr
 8000dfa:	46c0      	nop			; (mov r8, r8)

08000dfc <PendSV_Handler>:
 8000dfc:	4770      	bx	lr
 8000dfe:	46c0      	nop			; (mov r8, r8)

08000e00 <SysTick_Handler>:
 8000e00:	b510      	push	{r4, lr}
 8000e02:	f000 f893 	bl	8000f2c <HAL_IncTick>
 8000e06:	bd10      	pop	{r4, pc}

08000e08 <DMA1_Channel4_5_IRQHandler>:
 8000e08:	b510      	push	{r4, lr}
 8000e0a:	4802      	ldr	r0, [pc, #8]	; (8000e14 <DMA1_Channel4_5_IRQHandler+0xc>)
 8000e0c:	f000 fd10 	bl	8001830 <HAL_DMA_IRQHandler>
 8000e10:	bd10      	pop	{r4, pc}
 8000e12:	46c0      	nop			; (mov r8, r8)
 8000e14:	20000098 	.word	0x20000098

08000e18 <TIM2_IRQHandler>:
 8000e18:	b510      	push	{r4, lr}
 8000e1a:	4802      	ldr	r0, [pc, #8]	; (8000e24 <TIM2_IRQHandler+0xc>)
 8000e1c:	f001 fd5a 	bl	80028d4 <HAL_TIM_IRQHandler>
 8000e20:	bd10      	pop	{r4, pc}
 8000e22:	46c0      	nop			; (mov r8, r8)
 8000e24:	200003a8 	.word	0x200003a8

08000e28 <CEC_CAN_IRQHandler>:
 8000e28:	b510      	push	{r4, lr}
 8000e2a:	4802      	ldr	r0, [pc, #8]	; (8000e34 <CEC_CAN_IRQHandler+0xc>)
 8000e2c:	f000 fb0e 	bl	800144c <HAL_CAN_IRQHandler>
 8000e30:	bd10      	pop	{r4, pc}
 8000e32:	46c0      	nop			; (mov r8, r8)
 8000e34:	20000030 	.word	0x20000030

08000e38 <SystemInit>:
 8000e38:	4770      	bx	lr
 8000e3a:	46c0      	nop			; (mov r8, r8)

08000e3c <Reset_Handler>:
 8000e3c:	4813      	ldr	r0, [pc, #76]	; (8000e8c <LoopForever+0x2>)
 8000e3e:	4685      	mov	sp, r0
 8000e40:	4813      	ldr	r0, [pc, #76]	; (8000e90 <LoopForever+0x6>)
 8000e42:	6801      	ldr	r1, [r0, #0]
 8000e44:	0e09      	lsrs	r1, r1, #24
 8000e46:	4a13      	ldr	r2, [pc, #76]	; (8000e94 <LoopForever+0xa>)
 8000e48:	4291      	cmp	r1, r2
 8000e4a:	d105      	bne.n	8000e58 <ApplicationStart>
 8000e4c:	4812      	ldr	r0, [pc, #72]	; (8000e98 <LoopForever+0xe>)
 8000e4e:	4913      	ldr	r1, [pc, #76]	; (8000e9c <LoopForever+0x12>)
 8000e50:	6001      	str	r1, [r0, #0]
 8000e52:	4813      	ldr	r0, [pc, #76]	; (8000ea0 <LoopForever+0x16>)
 8000e54:	4913      	ldr	r1, [pc, #76]	; (8000ea4 <LoopForever+0x1a>)
 8000e56:	6001      	str	r1, [r0, #0]

08000e58 <ApplicationStart>:
 8000e58:	4813      	ldr	r0, [pc, #76]	; (8000ea8 <LoopForever+0x1e>)
 8000e5a:	4914      	ldr	r1, [pc, #80]	; (8000eac <LoopForever+0x22>)
 8000e5c:	4a14      	ldr	r2, [pc, #80]	; (8000eb0 <LoopForever+0x26>)
 8000e5e:	2300      	movs	r3, #0
 8000e60:	e002      	b.n	8000e68 <LoopCopyDataInit>

08000e62 <CopyDataInit>:
 8000e62:	58d4      	ldr	r4, [r2, r3]
 8000e64:	50c4      	str	r4, [r0, r3]
 8000e66:	3304      	adds	r3, #4

08000e68 <LoopCopyDataInit>:
 8000e68:	18c4      	adds	r4, r0, r3
 8000e6a:	428c      	cmp	r4, r1
 8000e6c:	d3f9      	bcc.n	8000e62 <CopyDataInit>
 8000e6e:	4a11      	ldr	r2, [pc, #68]	; (8000eb4 <LoopForever+0x2a>)
 8000e70:	4c11      	ldr	r4, [pc, #68]	; (8000eb8 <LoopForever+0x2e>)
 8000e72:	2300      	movs	r3, #0
 8000e74:	e001      	b.n	8000e7a <LoopFillZerobss>

08000e76 <FillZerobss>:
 8000e76:	6013      	str	r3, [r2, #0]
 8000e78:	3204      	adds	r2, #4

08000e7a <LoopFillZerobss>:
 8000e7a:	42a2      	cmp	r2, r4
 8000e7c:	d3fb      	bcc.n	8000e76 <FillZerobss>
 8000e7e:	f7ff ffdb 	bl	8000e38 <SystemInit>
 8000e82:	f001 fe11 	bl	8002aa8 <__libc_init_array>
 8000e86:	f7ff f9eb 	bl	8000260 <main>

08000e8a <LoopForever>:
 8000e8a:	e7fe      	b.n	8000e8a <LoopForever>
 8000e8c:	20001800 	.word	0x20001800
 8000e90:	00000004 	.word	0x00000004
 8000e94:	0000001f 	.word	0x0000001f
 8000e98:	40021018 	.word	0x40021018
 8000e9c:	00000001 	.word	0x00000001
 8000ea0:	40010000 	.word	0x40010000
 8000ea4:	00000000 	.word	0x00000000
 8000ea8:	20000000 	.word	0x20000000
 8000eac:	2000000c 	.word	0x2000000c
 8000eb0:	08002b50 	.word	0x08002b50
 8000eb4:	2000000c 	.word	0x2000000c
 8000eb8:	200003ec 	.word	0x200003ec

08000ebc <ADC1_IRQHandler>:
 8000ebc:	e7fe      	b.n	8000ebc <ADC1_IRQHandler>
	...

08000ec0 <HAL_InitTick>:
 8000ec0:	b510      	push	{r4, lr}
 8000ec2:	0004      	movs	r4, r0
 8000ec4:	20fa      	movs	r0, #250	; 0xfa
 8000ec6:	4b0e      	ldr	r3, [pc, #56]	; (8000f00 <HAL_InitTick+0x40>)
 8000ec8:	0080      	lsls	r0, r0, #2
 8000eca:	7819      	ldrb	r1, [r3, #0]
 8000ecc:	f7ff f91c 	bl	8000108 <__udivsi3>
 8000ed0:	4b0c      	ldr	r3, [pc, #48]	; (8000f04 <HAL_InitTick+0x44>)
 8000ed2:	0001      	movs	r1, r0
 8000ed4:	6818      	ldr	r0, [r3, #0]
 8000ed6:	f7ff f917 	bl	8000108 <__udivsi3>
 8000eda:	f000 fc19 	bl	8001710 <HAL_SYSTICK_Config>
 8000ede:	2301      	movs	r3, #1
 8000ee0:	2800      	cmp	r0, #0
 8000ee2:	d101      	bne.n	8000ee8 <HAL_InitTick+0x28>
 8000ee4:	2c03      	cmp	r4, #3
 8000ee6:	d901      	bls.n	8000eec <HAL_InitTick+0x2c>
 8000ee8:	0018      	movs	r0, r3
 8000eea:	bd10      	pop	{r4, pc}
 8000eec:	2200      	movs	r2, #0
 8000eee:	0021      	movs	r1, r4
 8000ef0:	3801      	subs	r0, #1
 8000ef2:	f000 fbd5 	bl	80016a0 <HAL_NVIC_SetPriority>
 8000ef6:	4b04      	ldr	r3, [pc, #16]	; (8000f08 <HAL_InitTick+0x48>)
 8000ef8:	601c      	str	r4, [r3, #0]
 8000efa:	2300      	movs	r3, #0
 8000efc:	e7f4      	b.n	8000ee8 <HAL_InitTick+0x28>
 8000efe:	46c0      	nop			; (mov r8, r8)
 8000f00:	20000004 	.word	0x20000004
 8000f04:	20000000 	.word	0x20000000
 8000f08:	20000008 	.word	0x20000008

08000f0c <HAL_Init>:
 8000f0c:	2110      	movs	r1, #16
 8000f0e:	4a06      	ldr	r2, [pc, #24]	; (8000f28 <HAL_Init+0x1c>)
 8000f10:	b510      	push	{r4, lr}
 8000f12:	6813      	ldr	r3, [r2, #0]
 8000f14:	2000      	movs	r0, #0
 8000f16:	430b      	orrs	r3, r1
 8000f18:	6013      	str	r3, [r2, #0]
 8000f1a:	f7ff ffd1 	bl	8000ec0 <HAL_InitTick>
 8000f1e:	f7ff fe7f 	bl	8000c20 <HAL_MspInit>
 8000f22:	2000      	movs	r0, #0
 8000f24:	bd10      	pop	{r4, pc}
 8000f26:	46c0      	nop			; (mov r8, r8)
 8000f28:	40022000 	.word	0x40022000

08000f2c <HAL_IncTick>:
 8000f2c:	4a03      	ldr	r2, [pc, #12]	; (8000f3c <HAL_IncTick+0x10>)
 8000f2e:	4b04      	ldr	r3, [pc, #16]	; (8000f40 <HAL_IncTick+0x14>)
 8000f30:	6811      	ldr	r1, [r2, #0]
 8000f32:	781b      	ldrb	r3, [r3, #0]
 8000f34:	185b      	adds	r3, r3, r1
 8000f36:	6013      	str	r3, [r2, #0]
 8000f38:	4770      	bx	lr
 8000f3a:	46c0      	nop			; (mov r8, r8)
 8000f3c:	200003e8 	.word	0x200003e8
 8000f40:	20000004 	.word	0x20000004

08000f44 <HAL_GetTick>:
 8000f44:	4b01      	ldr	r3, [pc, #4]	; (8000f4c <HAL_GetTick+0x8>)
 8000f46:	6818      	ldr	r0, [r3, #0]
 8000f48:	4770      	bx	lr
 8000f4a:	46c0      	nop			; (mov r8, r8)
 8000f4c:	200003e8 	.word	0x200003e8

08000f50 <HAL_Delay>:
 8000f50:	b570      	push	{r4, r5, r6, lr}
 8000f52:	0004      	movs	r4, r0
 8000f54:	f7ff fff6 	bl	8000f44 <HAL_GetTick>
 8000f58:	0005      	movs	r5, r0
 8000f5a:	1c63      	adds	r3, r4, #1
 8000f5c:	d002      	beq.n	8000f64 <HAL_Delay+0x14>
 8000f5e:	4b04      	ldr	r3, [pc, #16]	; (8000f70 <HAL_Delay+0x20>)
 8000f60:	781b      	ldrb	r3, [r3, #0]
 8000f62:	18e4      	adds	r4, r4, r3
 8000f64:	f7ff ffee 	bl	8000f44 <HAL_GetTick>
 8000f68:	1b40      	subs	r0, r0, r5
 8000f6a:	42a0      	cmp	r0, r4
 8000f6c:	d3fa      	bcc.n	8000f64 <HAL_Delay+0x14>
 8000f6e:	bd70      	pop	{r4, r5, r6, pc}
 8000f70:	20000004 	.word	0x20000004

08000f74 <HAL_CAN_Init>:
 8000f74:	b570      	push	{r4, r5, r6, lr}
 8000f76:	1e04      	subs	r4, r0, #0
 8000f78:	d100      	bne.n	8000f7c <HAL_CAN_Init+0x8>
 8000f7a:	e071      	b.n	8001060 <HAL_CAN_Init+0xec>
 8000f7c:	2320      	movs	r3, #32
 8000f7e:	5cc3      	ldrb	r3, [r0, r3]
 8000f80:	2b00      	cmp	r3, #0
 8000f82:	d06a      	beq.n	800105a <HAL_CAN_Init+0xe6>
 8000f84:	2102      	movs	r1, #2
 8000f86:	6822      	ldr	r2, [r4, #0]
 8000f88:	2502      	movs	r5, #2
 8000f8a:	6813      	ldr	r3, [r2, #0]
 8000f8c:	438b      	bics	r3, r1
 8000f8e:	6013      	str	r3, [r2, #0]
 8000f90:	f7ff ffd8 	bl	8000f44 <HAL_GetTick>
 8000f94:	0006      	movs	r6, r0
 8000f96:	e004      	b.n	8000fa2 <HAL_CAN_Init+0x2e>
 8000f98:	f7ff ffd4 	bl	8000f44 <HAL_GetTick>
 8000f9c:	1b80      	subs	r0, r0, r6
 8000f9e:	280a      	cmp	r0, #10
 8000fa0:	d851      	bhi.n	8001046 <HAL_CAN_Init+0xd2>
 8000fa2:	6823      	ldr	r3, [r4, #0]
 8000fa4:	685a      	ldr	r2, [r3, #4]
 8000fa6:	4215      	tst	r5, r2
 8000fa8:	d1f6      	bne.n	8000f98 <HAL_CAN_Init+0x24>
 8000faa:	2101      	movs	r1, #1
 8000fac:	681a      	ldr	r2, [r3, #0]
 8000fae:	2501      	movs	r5, #1
 8000fb0:	430a      	orrs	r2, r1
 8000fb2:	601a      	str	r2, [r3, #0]
 8000fb4:	f7ff ffc6 	bl	8000f44 <HAL_GetTick>
 8000fb8:	0006      	movs	r6, r0
 8000fba:	e004      	b.n	8000fc6 <HAL_CAN_Init+0x52>
 8000fbc:	f7ff ffc2 	bl	8000f44 <HAL_GetTick>
 8000fc0:	1b80      	subs	r0, r0, r6
 8000fc2:	280a      	cmp	r0, #10
 8000fc4:	d83f      	bhi.n	8001046 <HAL_CAN_Init+0xd2>
 8000fc6:	6823      	ldr	r3, [r4, #0]
 8000fc8:	685a      	ldr	r2, [r3, #4]
 8000fca:	4215      	tst	r5, r2
 8000fcc:	d0f6      	beq.n	8000fbc <HAL_CAN_Init+0x48>
 8000fce:	7e22      	ldrb	r2, [r4, #24]
 8000fd0:	2a01      	cmp	r2, #1
 8000fd2:	d047      	beq.n	8001064 <HAL_CAN_Init+0xf0>
 8000fd4:	2180      	movs	r1, #128	; 0x80
 8000fd6:	681a      	ldr	r2, [r3, #0]
 8000fd8:	438a      	bics	r2, r1
 8000fda:	601a      	str	r2, [r3, #0]
 8000fdc:	7e62      	ldrb	r2, [r4, #25]
 8000fde:	2a01      	cmp	r2, #1
 8000fe0:	d059      	beq.n	8001096 <HAL_CAN_Init+0x122>
 8000fe2:	2140      	movs	r1, #64	; 0x40
 8000fe4:	681a      	ldr	r2, [r3, #0]
 8000fe6:	438a      	bics	r2, r1
 8000fe8:	601a      	str	r2, [r3, #0]
 8000fea:	7ea2      	ldrb	r2, [r4, #26]
 8000fec:	2a01      	cmp	r2, #1
 8000fee:	d04d      	beq.n	800108c <HAL_CAN_Init+0x118>
 8000ff0:	2120      	movs	r1, #32
 8000ff2:	681a      	ldr	r2, [r3, #0]
 8000ff4:	438a      	bics	r2, r1
 8000ff6:	601a      	str	r2, [r3, #0]
 8000ff8:	7ee2      	ldrb	r2, [r4, #27]
 8000ffa:	2a01      	cmp	r2, #1
 8000ffc:	d041      	beq.n	8001082 <HAL_CAN_Init+0x10e>
 8000ffe:	2110      	movs	r1, #16
 8001000:	681a      	ldr	r2, [r3, #0]
 8001002:	430a      	orrs	r2, r1
 8001004:	601a      	str	r2, [r3, #0]
 8001006:	7f22      	ldrb	r2, [r4, #28]
 8001008:	2a01      	cmp	r2, #1
 800100a:	d035      	beq.n	8001078 <HAL_CAN_Init+0x104>
 800100c:	2108      	movs	r1, #8
 800100e:	681a      	ldr	r2, [r3, #0]
 8001010:	438a      	bics	r2, r1
 8001012:	601a      	str	r2, [r3, #0]
 8001014:	7f62      	ldrb	r2, [r4, #29]
 8001016:	2a01      	cmp	r2, #1
 8001018:	d029      	beq.n	800106e <HAL_CAN_Init+0xfa>
 800101a:	2104      	movs	r1, #4
 800101c:	681a      	ldr	r2, [r3, #0]
 800101e:	438a      	bics	r2, r1
 8001020:	601a      	str	r2, [r3, #0]
 8001022:	68e1      	ldr	r1, [r4, #12]
 8001024:	68a2      	ldr	r2, [r4, #8]
 8001026:	2000      	movs	r0, #0
 8001028:	430a      	orrs	r2, r1
 800102a:	6921      	ldr	r1, [r4, #16]
 800102c:	430a      	orrs	r2, r1
 800102e:	6961      	ldr	r1, [r4, #20]
 8001030:	430a      	orrs	r2, r1
 8001032:	6861      	ldr	r1, [r4, #4]
 8001034:	3901      	subs	r1, #1
 8001036:	430a      	orrs	r2, r1
 8001038:	61da      	str	r2, [r3, #28]
 800103a:	2300      	movs	r3, #0
 800103c:	2201      	movs	r2, #1
 800103e:	6263      	str	r3, [r4, #36]	; 0x24
 8001040:	3320      	adds	r3, #32
 8001042:	54e2      	strb	r2, [r4, r3]
 8001044:	e008      	b.n	8001058 <HAL_CAN_Init+0xe4>
 8001046:	2380      	movs	r3, #128	; 0x80
 8001048:	6a62      	ldr	r2, [r4, #36]	; 0x24
 800104a:	029b      	lsls	r3, r3, #10
 800104c:	4313      	orrs	r3, r2
 800104e:	6263      	str	r3, [r4, #36]	; 0x24
 8001050:	2205      	movs	r2, #5
 8001052:	2320      	movs	r3, #32
 8001054:	2001      	movs	r0, #1
 8001056:	54e2      	strb	r2, [r4, r3]
 8001058:	bd70      	pop	{r4, r5, r6, pc}
 800105a:	f7ff fdff 	bl	8000c5c <HAL_CAN_MspInit>
 800105e:	e791      	b.n	8000f84 <HAL_CAN_Init+0x10>
 8001060:	2001      	movs	r0, #1
 8001062:	e7f9      	b.n	8001058 <HAL_CAN_Init+0xe4>
 8001064:	2180      	movs	r1, #128	; 0x80
 8001066:	681a      	ldr	r2, [r3, #0]
 8001068:	430a      	orrs	r2, r1
 800106a:	601a      	str	r2, [r3, #0]
 800106c:	e7b6      	b.n	8000fdc <HAL_CAN_Init+0x68>
 800106e:	2104      	movs	r1, #4
 8001070:	681a      	ldr	r2, [r3, #0]
 8001072:	430a      	orrs	r2, r1
 8001074:	601a      	str	r2, [r3, #0]
 8001076:	e7d4      	b.n	8001022 <HAL_CAN_Init+0xae>
 8001078:	2108      	movs	r1, #8
 800107a:	681a      	ldr	r2, [r3, #0]
 800107c:	430a      	orrs	r2, r1
 800107e:	601a      	str	r2, [r3, #0]
 8001080:	e7c8      	b.n	8001014 <HAL_CAN_Init+0xa0>
 8001082:	2110      	movs	r1, #16
 8001084:	681a      	ldr	r2, [r3, #0]
 8001086:	438a      	bics	r2, r1
 8001088:	601a      	str	r2, [r3, #0]
 800108a:	e7bc      	b.n	8001006 <HAL_CAN_Init+0x92>
 800108c:	2120      	movs	r1, #32
 800108e:	681a      	ldr	r2, [r3, #0]
 8001090:	430a      	orrs	r2, r1
 8001092:	601a      	str	r2, [r3, #0]
 8001094:	e7b0      	b.n	8000ff8 <HAL_CAN_Init+0x84>
 8001096:	2140      	movs	r1, #64	; 0x40
 8001098:	681a      	ldr	r2, [r3, #0]
 800109a:	430a      	orrs	r2, r1
 800109c:	601a      	str	r2, [r3, #0]
 800109e:	e7a4      	b.n	8000fea <HAL_CAN_Init+0x76>

080010a0 <HAL_CAN_ConfigFilter>:
 80010a0:	2320      	movs	r3, #32
 80010a2:	b570      	push	{r4, r5, r6, lr}
 80010a4:	5cc3      	ldrb	r3, [r0, r3]
 80010a6:	3b01      	subs	r3, #1
 80010a8:	2b01      	cmp	r3, #1
 80010aa:	d906      	bls.n	80010ba <HAL_CAN_ConfigFilter+0x1a>
 80010ac:	2380      	movs	r3, #128	; 0x80
 80010ae:	6a42      	ldr	r2, [r0, #36]	; 0x24
 80010b0:	02db      	lsls	r3, r3, #11
 80010b2:	4313      	orrs	r3, r2
 80010b4:	6243      	str	r3, [r0, #36]	; 0x24
 80010b6:	2001      	movs	r0, #1
 80010b8:	bd70      	pop	{r4, r5, r6, pc}
 80010ba:	2480      	movs	r4, #128	; 0x80
 80010bc:	6803      	ldr	r3, [r0, #0]
 80010be:	2001      	movs	r0, #1
 80010c0:	00a4      	lsls	r4, r4, #2
 80010c2:	591a      	ldr	r2, [r3, r4]
 80010c4:	2687      	movs	r6, #135	; 0x87
 80010c6:	4302      	orrs	r2, r0
 80010c8:	511a      	str	r2, [r3, r4]
 80010ca:	694a      	ldr	r2, [r1, #20]
 80010cc:	3ce2      	subs	r4, #226	; 0xe2
 80010ce:	3cff      	subs	r4, #255	; 0xff
 80010d0:	4014      	ands	r4, r2
 80010d2:	40a0      	lsls	r0, r4
 80010d4:	43c5      	mvns	r5, r0
 80010d6:	00b6      	lsls	r6, r6, #2
 80010d8:	599c      	ldr	r4, [r3, r6]
 80010da:	402c      	ands	r4, r5
 80010dc:	519c      	str	r4, [r3, r6]
 80010de:	69cc      	ldr	r4, [r1, #28]
 80010e0:	2c00      	cmp	r4, #0
 80010e2:	d036      	beq.n	8001152 <HAL_CAN_ConfigFilter+0xb2>
 80010e4:	2c01      	cmp	r4, #1
 80010e6:	d114      	bne.n	8001112 <HAL_CAN_ConfigFilter+0x72>
 80010e8:	2683      	movs	r6, #131	; 0x83
 80010ea:	00b6      	lsls	r6, r6, #2
 80010ec:	599c      	ldr	r4, [r3, r6]
 80010ee:	00d2      	lsls	r2, r2, #3
 80010f0:	4304      	orrs	r4, r0
 80010f2:	519c      	str	r4, [r3, r6]
 80010f4:	680c      	ldr	r4, [r1, #0]
 80010f6:	888e      	ldrh	r6, [r1, #4]
 80010f8:	0424      	lsls	r4, r4, #16
 80010fa:	4334      	orrs	r4, r6
 80010fc:	2690      	movs	r6, #144	; 0x90
 80010fe:	189a      	adds	r2, r3, r2
 8001100:	00b6      	lsls	r6, r6, #2
 8001102:	5194      	str	r4, [r2, r6]
 8001104:	688c      	ldr	r4, [r1, #8]
 8001106:	898e      	ldrh	r6, [r1, #12]
 8001108:	0424      	lsls	r4, r4, #16
 800110a:	4334      	orrs	r4, r6
 800110c:	2691      	movs	r6, #145	; 0x91
 800110e:	00b6      	lsls	r6, r6, #2
 8001110:	5194      	str	r4, [r2, r6]
 8001112:	2481      	movs	r4, #129	; 0x81
 8001114:	698a      	ldr	r2, [r1, #24]
 8001116:	00a4      	lsls	r4, r4, #2
 8001118:	2a00      	cmp	r2, #0
 800111a:	d133      	bne.n	8001184 <HAL_CAN_ConfigFilter+0xe4>
 800111c:	591a      	ldr	r2, [r3, r4]
 800111e:	402a      	ands	r2, r5
 8001120:	511a      	str	r2, [r3, r4]
 8001122:	2485      	movs	r4, #133	; 0x85
 8001124:	690a      	ldr	r2, [r1, #16]
 8001126:	00a4      	lsls	r4, r4, #2
 8001128:	2a00      	cmp	r2, #0
 800112a:	d133      	bne.n	8001194 <HAL_CAN_ConfigFilter+0xf4>
 800112c:	591a      	ldr	r2, [r3, r4]
 800112e:	4015      	ands	r5, r2
 8001130:	511d      	str	r5, [r3, r4]
 8001132:	6a0a      	ldr	r2, [r1, #32]
 8001134:	2a01      	cmp	r2, #1
 8001136:	d104      	bne.n	8001142 <HAL_CAN_ConfigFilter+0xa2>
 8001138:	2187      	movs	r1, #135	; 0x87
 800113a:	0089      	lsls	r1, r1, #2
 800113c:	585a      	ldr	r2, [r3, r1]
 800113e:	4310      	orrs	r0, r2
 8001140:	5058      	str	r0, [r3, r1]
 8001142:	2180      	movs	r1, #128	; 0x80
 8001144:	2001      	movs	r0, #1
 8001146:	0089      	lsls	r1, r1, #2
 8001148:	585a      	ldr	r2, [r3, r1]
 800114a:	4382      	bics	r2, r0
 800114c:	505a      	str	r2, [r3, r1]
 800114e:	2000      	movs	r0, #0
 8001150:	e7b2      	b.n	80010b8 <HAL_CAN_ConfigFilter+0x18>
 8001152:	3e10      	subs	r6, #16
 8001154:	599c      	ldr	r4, [r3, r6]
 8001156:	00d2      	lsls	r2, r2, #3
 8001158:	402c      	ands	r4, r5
 800115a:	519c      	str	r4, [r3, r6]
 800115c:	68cc      	ldr	r4, [r1, #12]
 800115e:	888e      	ldrh	r6, [r1, #4]
 8001160:	0424      	lsls	r4, r4, #16
 8001162:	4334      	orrs	r4, r6
 8001164:	2690      	movs	r6, #144	; 0x90
 8001166:	189a      	adds	r2, r3, r2
 8001168:	00b6      	lsls	r6, r6, #2
 800116a:	5194      	str	r4, [r2, r6]
 800116c:	688c      	ldr	r4, [r1, #8]
 800116e:	880e      	ldrh	r6, [r1, #0]
 8001170:	0424      	lsls	r4, r4, #16
 8001172:	4334      	orrs	r4, r6
 8001174:	2691      	movs	r6, #145	; 0x91
 8001176:	00b6      	lsls	r6, r6, #2
 8001178:	5194      	str	r4, [r2, r6]
 800117a:	2481      	movs	r4, #129	; 0x81
 800117c:	698a      	ldr	r2, [r1, #24]
 800117e:	00a4      	lsls	r4, r4, #2
 8001180:	2a00      	cmp	r2, #0
 8001182:	d0cb      	beq.n	800111c <HAL_CAN_ConfigFilter+0x7c>
 8001184:	591a      	ldr	r2, [r3, r4]
 8001186:	4302      	orrs	r2, r0
 8001188:	511a      	str	r2, [r3, r4]
 800118a:	2485      	movs	r4, #133	; 0x85
 800118c:	690a      	ldr	r2, [r1, #16]
 800118e:	00a4      	lsls	r4, r4, #2
 8001190:	2a00      	cmp	r2, #0
 8001192:	d0cb      	beq.n	800112c <HAL_CAN_ConfigFilter+0x8c>
 8001194:	591a      	ldr	r2, [r3, r4]
 8001196:	4302      	orrs	r2, r0
 8001198:	511a      	str	r2, [r3, r4]
 800119a:	e7ca      	b.n	8001132 <HAL_CAN_ConfigFilter+0x92>

0800119c <HAL_CAN_Start>:
 800119c:	2220      	movs	r2, #32
 800119e:	b570      	push	{r4, r5, r6, lr}
 80011a0:	5c83      	ldrb	r3, [r0, r2]
 80011a2:	0004      	movs	r4, r0
 80011a4:	b2db      	uxtb	r3, r3
 80011a6:	2b01      	cmp	r3, #1
 80011a8:	d006      	beq.n	80011b8 <HAL_CAN_Start+0x1c>
 80011aa:	2380      	movs	r3, #128	; 0x80
 80011ac:	6a42      	ldr	r2, [r0, #36]	; 0x24
 80011ae:	031b      	lsls	r3, r3, #12
 80011b0:	4313      	orrs	r3, r2
 80011b2:	6243      	str	r3, [r0, #36]	; 0x24
 80011b4:	2001      	movs	r0, #1
 80011b6:	bd70      	pop	{r4, r5, r6, pc}
 80011b8:	2102      	movs	r1, #2
 80011ba:	5481      	strb	r1, [r0, r2]
 80011bc:	6801      	ldr	r1, [r0, #0]
 80011be:	2501      	movs	r5, #1
 80011c0:	680a      	ldr	r2, [r1, #0]
 80011c2:	439a      	bics	r2, r3
 80011c4:	600a      	str	r2, [r1, #0]
 80011c6:	f7ff febd 	bl	8000f44 <HAL_GetTick>
 80011ca:	0006      	movs	r6, r0
 80011cc:	e004      	b.n	80011d8 <HAL_CAN_Start+0x3c>
 80011ce:	f7ff feb9 	bl	8000f44 <HAL_GetTick>
 80011d2:	1b80      	subs	r0, r0, r6
 80011d4:	280a      	cmp	r0, #10
 80011d6:	d806      	bhi.n	80011e6 <HAL_CAN_Start+0x4a>
 80011d8:	6823      	ldr	r3, [r4, #0]
 80011da:	685b      	ldr	r3, [r3, #4]
 80011dc:	402b      	ands	r3, r5
 80011de:	d1f6      	bne.n	80011ce <HAL_CAN_Start+0x32>
 80011e0:	6263      	str	r3, [r4, #36]	; 0x24
 80011e2:	2000      	movs	r0, #0
 80011e4:	e7e7      	b.n	80011b6 <HAL_CAN_Start+0x1a>
 80011e6:	2380      	movs	r3, #128	; 0x80
 80011e8:	6a62      	ldr	r2, [r4, #36]	; 0x24
 80011ea:	029b      	lsls	r3, r3, #10
 80011ec:	4313      	orrs	r3, r2
 80011ee:	6263      	str	r3, [r4, #36]	; 0x24
 80011f0:	2205      	movs	r2, #5
 80011f2:	2320      	movs	r3, #32
 80011f4:	2001      	movs	r0, #1
 80011f6:	54e2      	strb	r2, [r4, r3]
 80011f8:	e7dd      	b.n	80011b6 <HAL_CAN_Start+0x1a>
 80011fa:	46c0      	nop			; (mov r8, r8)

080011fc <HAL_CAN_AddTxMessage>:
 80011fc:	b570      	push	{r4, r5, r6, lr}
 80011fe:	2420      	movs	r4, #32
 8001200:	5d04      	ldrb	r4, [r0, r4]
 8001202:	6806      	ldr	r6, [r0, #0]
 8001204:	3c01      	subs	r4, #1
 8001206:	68b5      	ldr	r5, [r6, #8]
 8001208:	2c01      	cmp	r4, #1
 800120a:	d906      	bls.n	800121a <HAL_CAN_AddTxMessage+0x1e>
 800120c:	2380      	movs	r3, #128	; 0x80
 800120e:	6a42      	ldr	r2, [r0, #36]	; 0x24
 8001210:	02db      	lsls	r3, r3, #11
 8001212:	4313      	orrs	r3, r2
 8001214:	6243      	str	r3, [r0, #36]	; 0x24
 8001216:	2001      	movs	r0, #1
 8001218:	bd70      	pop	{r4, r5, r6, pc}
 800121a:	24e0      	movs	r4, #224	; 0xe0
 800121c:	0564      	lsls	r4, r4, #21
 800121e:	4225      	tst	r5, r4
 8001220:	d042      	beq.n	80012a8 <HAL_CAN_AddTxMessage+0xac>
 8001222:	01ad      	lsls	r5, r5, #6
 8001224:	0fad      	lsrs	r5, r5, #30
 8001226:	2d03      	cmp	r5, #3
 8001228:	d045      	beq.n	80012b6 <HAL_CAN_AddTxMessage+0xba>
 800122a:	2001      	movs	r0, #1
 800122c:	40a8      	lsls	r0, r5
 800122e:	6018      	str	r0, [r3, #0]
 8001230:	688b      	ldr	r3, [r1, #8]
 8001232:	2b00      	cmp	r3, #0
 8001234:	d146      	bne.n	80012c4 <HAL_CAN_AddTxMessage+0xc8>
 8001236:	680b      	ldr	r3, [r1, #0]
 8001238:	68c8      	ldr	r0, [r1, #12]
 800123a:	055b      	lsls	r3, r3, #21
 800123c:	4303      	orrs	r3, r0
 800123e:	0028      	movs	r0, r5
 8001240:	3018      	adds	r0, #24
 8001242:	0100      	lsls	r0, r0, #4
 8001244:	5183      	str	r3, [r0, r6]
 8001246:	23c2      	movs	r3, #194	; 0xc2
 8001248:	690c      	ldr	r4, [r1, #16]
 800124a:	012d      	lsls	r5, r5, #4
 800124c:	1970      	adds	r0, r6, r5
 800124e:	005b      	lsls	r3, r3, #1
 8001250:	50c4      	str	r4, [r0, r3]
 8001252:	7d09      	ldrb	r1, [r1, #20]
 8001254:	2901      	cmp	r1, #1
 8001256:	d103      	bne.n	8001260 <HAL_CAN_AddTxMessage+0x64>
 8001258:	58c4      	ldr	r4, [r0, r3]
 800125a:	31ff      	adds	r1, #255	; 0xff
 800125c:	4321      	orrs	r1, r4
 800125e:	50c1      	str	r1, [r0, r3]
 8001260:	7951      	ldrb	r1, [r2, #5]
 8001262:	7913      	ldrb	r3, [r2, #4]
 8001264:	0209      	lsls	r1, r1, #8
 8001266:	4319      	orrs	r1, r3
 8001268:	7993      	ldrb	r3, [r2, #6]
 800126a:	1975      	adds	r5, r6, r5
 800126c:	041b      	lsls	r3, r3, #16
 800126e:	4319      	orrs	r1, r3
 8001270:	79d3      	ldrb	r3, [r2, #7]
 8001272:	061b      	lsls	r3, r3, #24
 8001274:	430b      	orrs	r3, r1
 8001276:	0029      	movs	r1, r5
 8001278:	318d      	adds	r1, #141	; 0x8d
 800127a:	31ff      	adds	r1, #255	; 0xff
 800127c:	600b      	str	r3, [r1, #0]
 800127e:	7851      	ldrb	r1, [r2, #1]
 8001280:	7813      	ldrb	r3, [r2, #0]
 8001282:	0209      	lsls	r1, r1, #8
 8001284:	4319      	orrs	r1, r3
 8001286:	7893      	ldrb	r3, [r2, #2]
 8001288:	3589      	adds	r5, #137	; 0x89
 800128a:	041b      	lsls	r3, r3, #16
 800128c:	4319      	orrs	r1, r3
 800128e:	78d3      	ldrb	r3, [r2, #3]
 8001290:	22c0      	movs	r2, #192	; 0xc0
 8001292:	061b      	lsls	r3, r3, #24
 8001294:	430b      	orrs	r3, r1
 8001296:	2101      	movs	r1, #1
 8001298:	35ff      	adds	r5, #255	; 0xff
 800129a:	602b      	str	r3, [r5, #0]
 800129c:	0052      	lsls	r2, r2, #1
 800129e:	5883      	ldr	r3, [r0, r2]
 80012a0:	430b      	orrs	r3, r1
 80012a2:	5083      	str	r3, [r0, r2]
 80012a4:	2000      	movs	r0, #0
 80012a6:	e7b7      	b.n	8001218 <HAL_CAN_AddTxMessage+0x1c>
 80012a8:	2380      	movs	r3, #128	; 0x80
 80012aa:	6a42      	ldr	r2, [r0, #36]	; 0x24
 80012ac:	039b      	lsls	r3, r3, #14
 80012ae:	4313      	orrs	r3, r2
 80012b0:	6243      	str	r3, [r0, #36]	; 0x24
 80012b2:	2001      	movs	r0, #1
 80012b4:	e7b0      	b.n	8001218 <HAL_CAN_AddTxMessage+0x1c>
 80012b6:	2380      	movs	r3, #128	; 0x80
 80012b8:	6a42      	ldr	r2, [r0, #36]	; 0x24
 80012ba:	041b      	lsls	r3, r3, #16
 80012bc:	4313      	orrs	r3, r2
 80012be:	6243      	str	r3, [r0, #36]	; 0x24
 80012c0:	2001      	movs	r0, #1
 80012c2:	e7a9      	b.n	8001218 <HAL_CAN_AddTxMessage+0x1c>
 80012c4:	6848      	ldr	r0, [r1, #4]
 80012c6:	68cc      	ldr	r4, [r1, #12]
 80012c8:	00c0      	lsls	r0, r0, #3
 80012ca:	4323      	orrs	r3, r4
 80012cc:	e7b6      	b.n	800123c <HAL_CAN_AddTxMessage+0x40>
 80012ce:	46c0      	nop			; (mov r8, r8)

080012d0 <HAL_CAN_GetRxMessage>:
 80012d0:	b5f0      	push	{r4, r5, r6, r7, lr}
 80012d2:	46ce      	mov	lr, r9
 80012d4:	4647      	mov	r7, r8
 80012d6:	2420      	movs	r4, #32
 80012d8:	b580      	push	{r7, lr}
 80012da:	5d04      	ldrb	r4, [r0, r4]
 80012dc:	3c01      	subs	r4, #1
 80012de:	2c01      	cmp	r4, #1
 80012e0:	d909      	bls.n	80012f6 <HAL_CAN_GetRxMessage+0x26>
 80012e2:	2380      	movs	r3, #128	; 0x80
 80012e4:	6a42      	ldr	r2, [r0, #36]	; 0x24
 80012e6:	02db      	lsls	r3, r3, #11
 80012e8:	4313      	orrs	r3, r2
 80012ea:	6243      	str	r3, [r0, #36]	; 0x24
 80012ec:	2001      	movs	r0, #1
 80012ee:	bc0c      	pop	{r2, r3}
 80012f0:	4690      	mov	r8, r2
 80012f2:	4699      	mov	r9, r3
 80012f4:	bdf0      	pop	{r4, r5, r6, r7, pc}
 80012f6:	6804      	ldr	r4, [r0, #0]
 80012f8:	46a1      	mov	r9, r4
 80012fa:	2900      	cmp	r1, #0
 80012fc:	d069      	beq.n	80013d2 <HAL_CAN_GetRxMessage+0x102>
 80012fe:	6924      	ldr	r4, [r4, #16]
 8001300:	07a4      	lsls	r4, r4, #30
 8001302:	d069      	beq.n	80013d8 <HAL_CAN_GetRxMessage+0x108>
 8001304:	464d      	mov	r5, r9
 8001306:	27d8      	movs	r7, #216	; 0xd8
 8001308:	010c      	lsls	r4, r1, #4
 800130a:	192e      	adds	r6, r5, r4
 800130c:	007f      	lsls	r7, r7, #1
 800130e:	46bc      	mov	ip, r7
 8001310:	59f7      	ldr	r7, [r6, r7]
 8001312:	46b8      	mov	r8, r7
 8001314:	2704      	movs	r7, #4
 8001316:	4645      	mov	r5, r8
 8001318:	402f      	ands	r7, r5
 800131a:	6097      	str	r7, [r2, #8]
 800131c:	4665      	mov	r5, ip
 800131e:	d168      	bne.n	80013f2 <HAL_CAN_GetRxMessage+0x122>
 8001320:	5977      	ldr	r7, [r6, r5]
 8001322:	0d7f      	lsrs	r7, r7, #21
 8001324:	6017      	str	r7, [r2, #0]
 8001326:	27d8      	movs	r7, #216	; 0xd8
 8001328:	007f      	lsls	r7, r7, #1
 800132a:	59f5      	ldr	r5, [r6, r7]
 800132c:	3faf      	subs	r7, #175	; 0xaf
 800132e:	3fff      	subs	r7, #255	; 0xff
 8001330:	402f      	ands	r7, r5
 8001332:	25da      	movs	r5, #218	; 0xda
 8001334:	006d      	lsls	r5, r5, #1
 8001336:	60d7      	str	r7, [r2, #12]
 8001338:	46ac      	mov	ip, r5
 800133a:	270f      	movs	r7, #15
 800133c:	5975      	ldr	r5, [r6, r5]
 800133e:	402f      	ands	r7, r5
 8001340:	4665      	mov	r5, ip
 8001342:	6117      	str	r7, [r2, #16]
 8001344:	5977      	ldr	r7, [r6, r5]
 8001346:	5976      	ldr	r6, [r6, r5]
 8001348:	043f      	lsls	r7, r7, #16
 800134a:	0e3f      	lsrs	r7, r7, #24
 800134c:	0c36      	lsrs	r6, r6, #16
 800134e:	6197      	str	r7, [r2, #24]
 8001350:	6156      	str	r6, [r2, #20]
 8001352:	464a      	mov	r2, r9
 8001354:	1915      	adds	r5, r2, r4
 8001356:	35b9      	adds	r5, #185	; 0xb9
 8001358:	35ff      	adds	r5, #255	; 0xff
 800135a:	682a      	ldr	r2, [r5, #0]
 800135c:	701a      	strb	r2, [r3, #0]
 800135e:	6802      	ldr	r2, [r0, #0]
 8001360:	1912      	adds	r2, r2, r4
 8001362:	32b9      	adds	r2, #185	; 0xb9
 8001364:	32ff      	adds	r2, #255	; 0xff
 8001366:	6812      	ldr	r2, [r2, #0]
 8001368:	0a12      	lsrs	r2, r2, #8
 800136a:	705a      	strb	r2, [r3, #1]
 800136c:	6802      	ldr	r2, [r0, #0]
 800136e:	1912      	adds	r2, r2, r4
 8001370:	32b9      	adds	r2, #185	; 0xb9
 8001372:	32ff      	adds	r2, #255	; 0xff
 8001374:	6812      	ldr	r2, [r2, #0]
 8001376:	0c12      	lsrs	r2, r2, #16
 8001378:	709a      	strb	r2, [r3, #2]
 800137a:	6802      	ldr	r2, [r0, #0]
 800137c:	1912      	adds	r2, r2, r4
 800137e:	32b9      	adds	r2, #185	; 0xb9
 8001380:	32ff      	adds	r2, #255	; 0xff
 8001382:	6812      	ldr	r2, [r2, #0]
 8001384:	0e12      	lsrs	r2, r2, #24
 8001386:	70da      	strb	r2, [r3, #3]
 8001388:	6802      	ldr	r2, [r0, #0]
 800138a:	1912      	adds	r2, r2, r4
 800138c:	32bd      	adds	r2, #189	; 0xbd
 800138e:	32ff      	adds	r2, #255	; 0xff
 8001390:	6812      	ldr	r2, [r2, #0]
 8001392:	711a      	strb	r2, [r3, #4]
 8001394:	6802      	ldr	r2, [r0, #0]
 8001396:	1912      	adds	r2, r2, r4
 8001398:	32bd      	adds	r2, #189	; 0xbd
 800139a:	32ff      	adds	r2, #255	; 0xff
 800139c:	6812      	ldr	r2, [r2, #0]
 800139e:	0a12      	lsrs	r2, r2, #8
 80013a0:	715a      	strb	r2, [r3, #5]
 80013a2:	6802      	ldr	r2, [r0, #0]
 80013a4:	1912      	adds	r2, r2, r4
 80013a6:	32bd      	adds	r2, #189	; 0xbd
 80013a8:	32ff      	adds	r2, #255	; 0xff
 80013aa:	6812      	ldr	r2, [r2, #0]
 80013ac:	0c12      	lsrs	r2, r2, #16
 80013ae:	719a      	strb	r2, [r3, #6]
 80013b0:	6802      	ldr	r2, [r0, #0]
 80013b2:	4694      	mov	ip, r2
 80013b4:	4464      	add	r4, ip
 80013b6:	34bd      	adds	r4, #189	; 0xbd
 80013b8:	34ff      	adds	r4, #255	; 0xff
 80013ba:	6822      	ldr	r2, [r4, #0]
 80013bc:	0e12      	lsrs	r2, r2, #24
 80013be:	71da      	strb	r2, [r3, #7]
 80013c0:	6802      	ldr	r2, [r0, #0]
 80013c2:	2900      	cmp	r1, #0
 80013c4:	d10f      	bne.n	80013e6 <HAL_CAN_GetRxMessage+0x116>
 80013c6:	68d3      	ldr	r3, [r2, #12]
 80013c8:	3120      	adds	r1, #32
 80013ca:	430b      	orrs	r3, r1
 80013cc:	60d3      	str	r3, [r2, #12]
 80013ce:	2000      	movs	r0, #0
 80013d0:	e78d      	b.n	80012ee <HAL_CAN_GetRxMessage+0x1e>
 80013d2:	68e4      	ldr	r4, [r4, #12]
 80013d4:	07a4      	lsls	r4, r4, #30
 80013d6:	d195      	bne.n	8001304 <HAL_CAN_GetRxMessage+0x34>
 80013d8:	2380      	movs	r3, #128	; 0x80
 80013da:	6a42      	ldr	r2, [r0, #36]	; 0x24
 80013dc:	039b      	lsls	r3, r3, #14
 80013de:	4313      	orrs	r3, r2
 80013e0:	6243      	str	r3, [r0, #36]	; 0x24
 80013e2:	2001      	movs	r0, #1
 80013e4:	e783      	b.n	80012ee <HAL_CAN_GetRxMessage+0x1e>
 80013e6:	2120      	movs	r1, #32
 80013e8:	6913      	ldr	r3, [r2, #16]
 80013ea:	2000      	movs	r0, #0
 80013ec:	430b      	orrs	r3, r1
 80013ee:	6113      	str	r3, [r2, #16]
 80013f0:	e77d      	b.n	80012ee <HAL_CAN_GetRxMessage+0x1e>
 80013f2:	5977      	ldr	r7, [r6, r5]
 80013f4:	08ff      	lsrs	r7, r7, #3
 80013f6:	6057      	str	r7, [r2, #4]
 80013f8:	e795      	b.n	8001326 <HAL_CAN_GetRxMessage+0x56>
 80013fa:	46c0      	nop			; (mov r8, r8)

080013fc <HAL_CAN_ActivateNotification>:
 80013fc:	2320      	movs	r3, #32
 80013fe:	5cc3      	ldrb	r3, [r0, r3]
 8001400:	3b01      	subs	r3, #1
 8001402:	2b01      	cmp	r3, #1
 8001404:	d906      	bls.n	8001414 <HAL_CAN_ActivateNotification+0x18>
 8001406:	2380      	movs	r3, #128	; 0x80
 8001408:	6a42      	ldr	r2, [r0, #36]	; 0x24
 800140a:	02db      	lsls	r3, r3, #11
 800140c:	4313      	orrs	r3, r2
 800140e:	6243      	str	r3, [r0, #36]	; 0x24
 8001410:	2001      	movs	r0, #1
 8001412:	4770      	bx	lr
 8001414:	6802      	ldr	r2, [r0, #0]
 8001416:	2000      	movs	r0, #0
 8001418:	6953      	ldr	r3, [r2, #20]
 800141a:	4319      	orrs	r1, r3
 800141c:	6151      	str	r1, [r2, #20]
 800141e:	e7f8      	b.n	8001412 <HAL_CAN_ActivateNotification+0x16>

08001420 <HAL_CAN_TxMailbox0CompleteCallback>:
 8001420:	4770      	bx	lr
 8001422:	46c0      	nop			; (mov r8, r8)

08001424 <HAL_CAN_TxMailbox1CompleteCallback>:
 8001424:	4770      	bx	lr
 8001426:	46c0      	nop			; (mov r8, r8)

08001428 <HAL_CAN_TxMailbox2CompleteCallback>:
 8001428:	4770      	bx	lr
 800142a:	46c0      	nop			; (mov r8, r8)

0800142c <HAL_CAN_TxMailbox0AbortCallback>:
 800142c:	4770      	bx	lr
 800142e:	46c0      	nop			; (mov r8, r8)

08001430 <HAL_CAN_TxMailbox1AbortCallback>:
 8001430:	4770      	bx	lr
 8001432:	46c0      	nop			; (mov r8, r8)

08001434 <HAL_CAN_TxMailbox2AbortCallback>:
 8001434:	4770      	bx	lr
 8001436:	46c0      	nop			; (mov r8, r8)

08001438 <HAL_CAN_RxFifo0FullCallback>:
 8001438:	4770      	bx	lr
 800143a:	46c0      	nop			; (mov r8, r8)

0800143c <HAL_CAN_RxFifo1MsgPendingCallback>:
 800143c:	4770      	bx	lr
 800143e:	46c0      	nop			; (mov r8, r8)

08001440 <HAL_CAN_RxFifo1FullCallback>:
 8001440:	4770      	bx	lr
 8001442:	46c0      	nop			; (mov r8, r8)

08001444 <HAL_CAN_SleepCallback>:
 8001444:	4770      	bx	lr
 8001446:	46c0      	nop			; (mov r8, r8)

08001448 <HAL_CAN_WakeUpFromRxMsgCallback>:
 8001448:	4770      	bx	lr
 800144a:	46c0      	nop			; (mov r8, r8)

0800144c <HAL_CAN_IRQHandler>:
 800144c:	b5f8      	push	{r3, r4, r5, r6, r7, lr}
 800144e:	4657      	mov	r7, sl
 8001450:	464e      	mov	r6, r9
 8001452:	4645      	mov	r5, r8
 8001454:	46de      	mov	lr, fp
 8001456:	6803      	ldr	r3, [r0, #0]
 8001458:	b5e0      	push	{r5, r6, r7, lr}
 800145a:	695c      	ldr	r4, [r3, #20]
 800145c:	685a      	ldr	r2, [r3, #4]
 800145e:	689f      	ldr	r7, [r3, #8]
 8001460:	4690      	mov	r8, r2
 8001462:	68da      	ldr	r2, [r3, #12]
 8001464:	0005      	movs	r5, r0
 8001466:	4692      	mov	sl, r2
 8001468:	691a      	ldr	r2, [r3, #16]
 800146a:	2600      	movs	r6, #0
 800146c:	4691      	mov	r9, r2
 800146e:	699a      	ldr	r2, [r3, #24]
 8001470:	4693      	mov	fp, r2
 8001472:	2201      	movs	r2, #1
 8001474:	4222      	tst	r2, r4
 8001476:	d025      	beq.n	80014c4 <HAL_CAN_IRQHandler+0x78>
 8001478:	423a      	tst	r2, r7
 800147a:	d000      	beq.n	800147e <HAL_CAN_IRQHandler+0x32>
 800147c:	e0a2      	b.n	80015c4 <HAL_CAN_IRQHandler+0x178>
 800147e:	2280      	movs	r2, #128	; 0x80
 8001480:	2180      	movs	r1, #128	; 0x80
 8001482:	0192      	lsls	r2, r2, #6
 8001484:	01c9      	lsls	r1, r1, #7
 8001486:	2380      	movs	r3, #128	; 0x80
 8001488:	005b      	lsls	r3, r3, #1
 800148a:	421f      	tst	r7, r3
 800148c:	d00b      	beq.n	80014a6 <HAL_CAN_IRQHandler+0x5a>
 800148e:	6828      	ldr	r0, [r5, #0]
 8001490:	6083      	str	r3, [r0, #8]
 8001492:	05bb      	lsls	r3, r7, #22
 8001494:	d500      	bpl.n	8001498 <HAL_CAN_IRQHandler+0x4c>
 8001496:	e0c7      	b.n	8001628 <HAL_CAN_IRQHandler+0x1dc>
 8001498:	057b      	lsls	r3, r7, #21
 800149a:	d500      	bpl.n	800149e <HAL_CAN_IRQHandler+0x52>
 800149c:	e0d6      	b.n	800164c <HAL_CAN_IRQHandler+0x200>
 800149e:	053b      	lsls	r3, r7, #20
 80014a0:	d400      	bmi.n	80014a4 <HAL_CAN_IRQHandler+0x58>
 80014a2:	e0e0      	b.n	8001666 <HAL_CAN_IRQHandler+0x21a>
 80014a4:	000e      	movs	r6, r1
 80014a6:	2380      	movs	r3, #128	; 0x80
 80014a8:	025b      	lsls	r3, r3, #9
 80014aa:	421f      	tst	r7, r3
 80014ac:	d00a      	beq.n	80014c4 <HAL_CAN_IRQHandler+0x78>
 80014ae:	682a      	ldr	r2, [r5, #0]
 80014b0:	6093      	str	r3, [r2, #8]
 80014b2:	03ba      	lsls	r2, r7, #14
 80014b4:	d500      	bpl.n	80014b8 <HAL_CAN_IRQHandler+0x6c>
 80014b6:	e0b3      	b.n	8001620 <HAL_CAN_IRQHandler+0x1d4>
 80014b8:	037a      	lsls	r2, r7, #13
 80014ba:	d400      	bmi.n	80014be <HAL_CAN_IRQHandler+0x72>
 80014bc:	e0c8      	b.n	8001650 <HAL_CAN_IRQHandler+0x204>
 80014be:	2380      	movs	r3, #128	; 0x80
 80014c0:	021b      	lsls	r3, r3, #8
 80014c2:	431e      	orrs	r6, r3
 80014c4:	0723      	lsls	r3, r4, #28
 80014c6:	d504      	bpl.n	80014d2 <HAL_CAN_IRQHandler+0x86>
 80014c8:	2310      	movs	r3, #16
 80014ca:	4652      	mov	r2, sl
 80014cc:	4213      	tst	r3, r2
 80014ce:	d000      	beq.n	80014d2 <HAL_CAN_IRQHandler+0x86>
 80014d0:	e072      	b.n	80015b8 <HAL_CAN_IRQHandler+0x16c>
 80014d2:	0763      	lsls	r3, r4, #29
 80014d4:	d504      	bpl.n	80014e0 <HAL_CAN_IRQHandler+0x94>
 80014d6:	2308      	movs	r3, #8
 80014d8:	4652      	mov	r2, sl
 80014da:	4213      	tst	r3, r2
 80014dc:	d000      	beq.n	80014e0 <HAL_CAN_IRQHandler+0x94>
 80014de:	e07f      	b.n	80015e0 <HAL_CAN_IRQHandler+0x194>
 80014e0:	07a3      	lsls	r3, r4, #30
 80014e2:	d504      	bpl.n	80014ee <HAL_CAN_IRQHandler+0xa2>
 80014e4:	682b      	ldr	r3, [r5, #0]
 80014e6:	68db      	ldr	r3, [r3, #12]
 80014e8:	079b      	lsls	r3, r3, #30
 80014ea:	d000      	beq.n	80014ee <HAL_CAN_IRQHandler+0xa2>
 80014ec:	e08a      	b.n	8001604 <HAL_CAN_IRQHandler+0x1b8>
 80014ee:	0663      	lsls	r3, r4, #25
 80014f0:	d503      	bpl.n	80014fa <HAL_CAN_IRQHandler+0xae>
 80014f2:	2310      	movs	r3, #16
 80014f4:	464a      	mov	r2, r9
 80014f6:	4213      	tst	r3, r2
 80014f8:	d158      	bne.n	80015ac <HAL_CAN_IRQHandler+0x160>
 80014fa:	06a3      	lsls	r3, r4, #26
 80014fc:	d504      	bpl.n	8001508 <HAL_CAN_IRQHandler+0xbc>
 80014fe:	2308      	movs	r3, #8
 8001500:	464a      	mov	r2, r9
 8001502:	4213      	tst	r3, r2
 8001504:	d000      	beq.n	8001508 <HAL_CAN_IRQHandler+0xbc>
 8001506:	e081      	b.n	800160c <HAL_CAN_IRQHandler+0x1c0>
 8001508:	06e3      	lsls	r3, r4, #27
 800150a:	d504      	bpl.n	8001516 <HAL_CAN_IRQHandler+0xca>
 800150c:	682b      	ldr	r3, [r5, #0]
 800150e:	691b      	ldr	r3, [r3, #16]
 8001510:	079b      	lsls	r3, r3, #30
 8001512:	d000      	beq.n	8001516 <HAL_CAN_IRQHandler+0xca>
 8001514:	e080      	b.n	8001618 <HAL_CAN_IRQHandler+0x1cc>
 8001516:	03a3      	lsls	r3, r4, #14
 8001518:	d503      	bpl.n	8001522 <HAL_CAN_IRQHandler+0xd6>
 800151a:	2310      	movs	r3, #16
 800151c:	4642      	mov	r2, r8
 800151e:	4213      	tst	r3, r2
 8001520:	d164      	bne.n	80015ec <HAL_CAN_IRQHandler+0x1a0>
 8001522:	03e3      	lsls	r3, r4, #15
 8001524:	d503      	bpl.n	800152e <HAL_CAN_IRQHandler+0xe2>
 8001526:	2308      	movs	r3, #8
 8001528:	4642      	mov	r2, r8
 800152a:	4213      	tst	r3, r2
 800152c:	d164      	bne.n	80015f8 <HAL_CAN_IRQHandler+0x1ac>
 800152e:	0423      	lsls	r3, r4, #16
 8001530:	d505      	bpl.n	800153e <HAL_CAN_IRQHandler+0xf2>
 8001532:	4642      	mov	r2, r8
 8001534:	682b      	ldr	r3, [r5, #0]
 8001536:	0752      	lsls	r2, r2, #29
 8001538:	d40f      	bmi.n	800155a <HAL_CAN_IRQHandler+0x10e>
 800153a:	2204      	movs	r2, #4
 800153c:	605a      	str	r2, [r3, #4]
 800153e:	2e00      	cmp	r6, #0
 8001540:	d005      	beq.n	800154e <HAL_CAN_IRQHandler+0x102>
 8001542:	6a6b      	ldr	r3, [r5, #36]	; 0x24
 8001544:	0028      	movs	r0, r5
 8001546:	431e      	orrs	r6, r3
 8001548:	626e      	str	r6, [r5, #36]	; 0x24
 800154a:	f7ff fb51 	bl	8000bf0 <HAL_CAN_ErrorCallback>
 800154e:	bc3c      	pop	{r2, r3, r4, r5}
 8001550:	4690      	mov	r8, r2
 8001552:	4699      	mov	r9, r3
 8001554:	46a2      	mov	sl, r4
 8001556:	46ab      	mov	fp, r5
 8001558:	bdf8      	pop	{r3, r4, r5, r6, r7, pc}
 800155a:	05e2      	lsls	r2, r4, #23
 800155c:	d504      	bpl.n	8001568 <HAL_CAN_IRQHandler+0x11c>
 800155e:	2201      	movs	r2, #1
 8001560:	4659      	mov	r1, fp
 8001562:	420a      	tst	r2, r1
 8001564:	d000      	beq.n	8001568 <HAL_CAN_IRQHandler+0x11c>
 8001566:	4316      	orrs	r6, r2
 8001568:	05a2      	lsls	r2, r4, #22
 800156a:	d504      	bpl.n	8001576 <HAL_CAN_IRQHandler+0x12a>
 800156c:	2202      	movs	r2, #2
 800156e:	4659      	mov	r1, fp
 8001570:	420a      	tst	r2, r1
 8001572:	d000      	beq.n	8001576 <HAL_CAN_IRQHandler+0x12a>
 8001574:	4316      	orrs	r6, r2
 8001576:	0562      	lsls	r2, r4, #21
 8001578:	d504      	bpl.n	8001584 <HAL_CAN_IRQHandler+0x138>
 800157a:	2204      	movs	r2, #4
 800157c:	4659      	mov	r1, fp
 800157e:	420a      	tst	r2, r1
 8001580:	d000      	beq.n	8001584 <HAL_CAN_IRQHandler+0x138>
 8001582:	4316      	orrs	r6, r2
 8001584:	0522      	lsls	r2, r4, #20
 8001586:	d5d8      	bpl.n	800153a <HAL_CAN_IRQHandler+0xee>
 8001588:	2270      	movs	r2, #112	; 0x70
 800158a:	4659      	mov	r1, fp
 800158c:	400a      	ands	r2, r1
 800158e:	d0d4      	beq.n	800153a <HAL_CAN_IRQHandler+0xee>
 8001590:	2a30      	cmp	r2, #48	; 0x30
 8001592:	d07b      	beq.n	800168c <HAL_CAN_IRQHandler+0x240>
 8001594:	d960      	bls.n	8001658 <HAL_CAN_IRQHandler+0x20c>
 8001596:	2a50      	cmp	r2, #80	; 0x50
 8001598:	d07e      	beq.n	8001698 <HAL_CAN_IRQHandler+0x24c>
 800159a:	2a60      	cmp	r2, #96	; 0x60
 800159c:	d072      	beq.n	8001684 <HAL_CAN_IRQHandler+0x238>
 800159e:	2a40      	cmp	r2, #64	; 0x40
 80015a0:	d072      	beq.n	8001688 <HAL_CAN_IRQHandler+0x23c>
 80015a2:	2170      	movs	r1, #112	; 0x70
 80015a4:	699a      	ldr	r2, [r3, #24]
 80015a6:	438a      	bics	r2, r1
 80015a8:	619a      	str	r2, [r3, #24]
 80015aa:	e7c6      	b.n	800153a <HAL_CAN_IRQHandler+0xee>
 80015ac:	2280      	movs	r2, #128	; 0x80
 80015ae:	00d2      	lsls	r2, r2, #3
 80015b0:	4316      	orrs	r6, r2
 80015b2:	682a      	ldr	r2, [r5, #0]
 80015b4:	6113      	str	r3, [r2, #16]
 80015b6:	e7a0      	b.n	80014fa <HAL_CAN_IRQHandler+0xae>
 80015b8:	2280      	movs	r2, #128	; 0x80
 80015ba:	0092      	lsls	r2, r2, #2
 80015bc:	4316      	orrs	r6, r2
 80015be:	682a      	ldr	r2, [r5, #0]
 80015c0:	60d3      	str	r3, [r2, #12]
 80015c2:	e786      	b.n	80014d2 <HAL_CAN_IRQHandler+0x86>
 80015c4:	609a      	str	r2, [r3, #8]
 80015c6:	07bb      	lsls	r3, r7, #30
 80015c8:	d432      	bmi.n	8001630 <HAL_CAN_IRQHandler+0x1e4>
 80015ca:	077b      	lsls	r3, r7, #29
 80015cc:	d437      	bmi.n	800163e <HAL_CAN_IRQHandler+0x1f2>
 80015ce:	073b      	lsls	r3, r7, #28
 80015d0:	d54d      	bpl.n	800166e <HAL_CAN_IRQHandler+0x222>
 80015d2:	22c0      	movs	r2, #192	; 0xc0
 80015d4:	21a0      	movs	r1, #160	; 0xa0
 80015d6:	2680      	movs	r6, #128	; 0x80
 80015d8:	0192      	lsls	r2, r2, #6
 80015da:	01c9      	lsls	r1, r1, #7
 80015dc:	0176      	lsls	r6, r6, #5
 80015de:	e752      	b.n	8001486 <HAL_CAN_IRQHandler+0x3a>
 80015e0:	682a      	ldr	r2, [r5, #0]
 80015e2:	0028      	movs	r0, r5
 80015e4:	60d3      	str	r3, [r2, #12]
 80015e6:	f7ff ff27 	bl	8001438 <HAL_CAN_RxFifo0FullCallback>
 80015ea:	e779      	b.n	80014e0 <HAL_CAN_IRQHandler+0x94>
 80015ec:	682a      	ldr	r2, [r5, #0]
 80015ee:	0028      	movs	r0, r5
 80015f0:	6053      	str	r3, [r2, #4]
 80015f2:	f7ff ff27 	bl	8001444 <HAL_CAN_SleepCallback>
 80015f6:	e794      	b.n	8001522 <HAL_CAN_IRQHandler+0xd6>
 80015f8:	682a      	ldr	r2, [r5, #0]
 80015fa:	0028      	movs	r0, r5
 80015fc:	6053      	str	r3, [r2, #4]
 80015fe:	f7ff ff23 	bl	8001448 <HAL_CAN_WakeUpFromRxMsgCallback>
 8001602:	e794      	b.n	800152e <HAL_CAN_IRQHandler+0xe2>
 8001604:	0028      	movs	r0, r5
 8001606:	f7ff fabb 	bl	8000b80 <HAL_CAN_RxFifo0MsgPendingCallback>
 800160a:	e770      	b.n	80014ee <HAL_CAN_IRQHandler+0xa2>
 800160c:	682a      	ldr	r2, [r5, #0]
 800160e:	0028      	movs	r0, r5
 8001610:	6113      	str	r3, [r2, #16]
 8001612:	f7ff ff15 	bl	8001440 <HAL_CAN_RxFifo1FullCallback>
 8001616:	e777      	b.n	8001508 <HAL_CAN_IRQHandler+0xbc>
 8001618:	0028      	movs	r0, r5
 800161a:	f7ff ff0f 	bl	800143c <HAL_CAN_RxFifo1MsgPendingCallback>
 800161e:	e77a      	b.n	8001516 <HAL_CAN_IRQHandler+0xca>
 8001620:	0028      	movs	r0, r5
 8001622:	f7ff ff01 	bl	8001428 <HAL_CAN_TxMailbox2CompleteCallback>
 8001626:	e74d      	b.n	80014c4 <HAL_CAN_IRQHandler+0x78>
 8001628:	0028      	movs	r0, r5
 800162a:	f7ff fefb 	bl	8001424 <HAL_CAN_TxMailbox1CompleteCallback>
 800162e:	e73a      	b.n	80014a6 <HAL_CAN_IRQHandler+0x5a>
 8001630:	f7ff fef6 	bl	8001420 <HAL_CAN_TxMailbox0CompleteCallback>
 8001634:	2280      	movs	r2, #128	; 0x80
 8001636:	2180      	movs	r1, #128	; 0x80
 8001638:	0192      	lsls	r2, r2, #6
 800163a:	01c9      	lsls	r1, r1, #7
 800163c:	e723      	b.n	8001486 <HAL_CAN_IRQHandler+0x3a>
 800163e:	22a0      	movs	r2, #160	; 0xa0
 8001640:	2190      	movs	r1, #144	; 0x90
 8001642:	2680      	movs	r6, #128	; 0x80
 8001644:	0192      	lsls	r2, r2, #6
 8001646:	01c9      	lsls	r1, r1, #7
 8001648:	0136      	lsls	r6, r6, #4
 800164a:	e71c      	b.n	8001486 <HAL_CAN_IRQHandler+0x3a>
 800164c:	0016      	movs	r6, r2
 800164e:	e72a      	b.n	80014a6 <HAL_CAN_IRQHandler+0x5a>
 8001650:	033a      	lsls	r2, r7, #12
 8001652:	d513      	bpl.n	800167c <HAL_CAN_IRQHandler+0x230>
 8001654:	431e      	orrs	r6, r3
 8001656:	e735      	b.n	80014c4 <HAL_CAN_IRQHandler+0x78>
 8001658:	2a10      	cmp	r2, #16
 800165a:	d01a      	beq.n	8001692 <HAL_CAN_IRQHandler+0x246>
 800165c:	2a20      	cmp	r2, #32
 800165e:	d1a0      	bne.n	80015a2 <HAL_CAN_IRQHandler+0x156>
 8001660:	2210      	movs	r2, #16
 8001662:	4316      	orrs	r6, r2
 8001664:	e79d      	b.n	80015a2 <HAL_CAN_IRQHandler+0x156>
 8001666:	0028      	movs	r0, r5
 8001668:	f7ff fee2 	bl	8001430 <HAL_CAN_TxMailbox1AbortCallback>
 800166c:	e71b      	b.n	80014a6 <HAL_CAN_IRQHandler+0x5a>
 800166e:	f7ff fedd 	bl	800142c <HAL_CAN_TxMailbox0AbortCallback>
 8001672:	2280      	movs	r2, #128	; 0x80
 8001674:	2180      	movs	r1, #128	; 0x80
 8001676:	0192      	lsls	r2, r2, #6
 8001678:	01c9      	lsls	r1, r1, #7
 800167a:	e704      	b.n	8001486 <HAL_CAN_IRQHandler+0x3a>
 800167c:	0028      	movs	r0, r5
 800167e:	f7ff fed9 	bl	8001434 <HAL_CAN_TxMailbox2AbortCallback>
 8001682:	e71f      	b.n	80014c4 <HAL_CAN_IRQHandler+0x78>
 8001684:	2280      	movs	r2, #128	; 0x80
 8001686:	0052      	lsls	r2, r2, #1
 8001688:	4316      	orrs	r6, r2
 800168a:	e78a      	b.n	80015a2 <HAL_CAN_IRQHandler+0x156>
 800168c:	2220      	movs	r2, #32
 800168e:	4316      	orrs	r6, r2
 8001690:	e787      	b.n	80015a2 <HAL_CAN_IRQHandler+0x156>
 8001692:	2208      	movs	r2, #8
 8001694:	4316      	orrs	r6, r2
 8001696:	e784      	b.n	80015a2 <HAL_CAN_IRQHandler+0x156>
 8001698:	2280      	movs	r2, #128	; 0x80
 800169a:	4316      	orrs	r6, r2
 800169c:	e781      	b.n	80015a2 <HAL_CAN_IRQHandler+0x156>
 800169e:	46c0      	nop			; (mov r8, r8)

080016a0 <HAL_NVIC_SetPriority>:
 80016a0:	22ff      	movs	r2, #255	; 0xff
 80016a2:	2303      	movs	r3, #3
 80016a4:	b530      	push	{r4, r5, lr}
 80016a6:	0014      	movs	r4, r2
 80016a8:	b2c5      	uxtb	r5, r0
 80016aa:	402b      	ands	r3, r5
 80016ac:	00db      	lsls	r3, r3, #3
 80016ae:	409c      	lsls	r4, r3
 80016b0:	0189      	lsls	r1, r1, #6
 80016b2:	400a      	ands	r2, r1
 80016b4:	43e4      	mvns	r4, r4
 80016b6:	409a      	lsls	r2, r3
 80016b8:	2800      	cmp	r0, #0
 80016ba:	db0b      	blt.n	80016d4 <HAL_NVIC_SetPriority+0x34>
 80016bc:	4b0c      	ldr	r3, [pc, #48]	; (80016f0 <HAL_NVIC_SetPriority+0x50>)
 80016be:	0880      	lsrs	r0, r0, #2
 80016c0:	469c      	mov	ip, r3
 80016c2:	23c0      	movs	r3, #192	; 0xc0
 80016c4:	0080      	lsls	r0, r0, #2
 80016c6:	4460      	add	r0, ip
 80016c8:	009b      	lsls	r3, r3, #2
 80016ca:	58c1      	ldr	r1, [r0, r3]
 80016cc:	400c      	ands	r4, r1
 80016ce:	4322      	orrs	r2, r4
 80016d0:	50c2      	str	r2, [r0, r3]
 80016d2:	bd30      	pop	{r4, r5, pc}
 80016d4:	230f      	movs	r3, #15
 80016d6:	4907      	ldr	r1, [pc, #28]	; (80016f4 <HAL_NVIC_SetPriority+0x54>)
 80016d8:	402b      	ands	r3, r5
 80016da:	468c      	mov	ip, r1
 80016dc:	3b08      	subs	r3, #8
 80016de:	089b      	lsrs	r3, r3, #2
 80016e0:	009b      	lsls	r3, r3, #2
 80016e2:	4463      	add	r3, ip
 80016e4:	69d9      	ldr	r1, [r3, #28]
 80016e6:	400c      	ands	r4, r1
 80016e8:	4322      	orrs	r2, r4
 80016ea:	61da      	str	r2, [r3, #28]
 80016ec:	e7f1      	b.n	80016d2 <HAL_NVIC_SetPriority+0x32>
 80016ee:	46c0      	nop			; (mov r8, r8)
 80016f0:	e000e100 	.word	0xe000e100
 80016f4:	e000ed00 	.word	0xe000ed00

080016f8 <HAL_NVIC_EnableIRQ>:
 80016f8:	2800      	cmp	r0, #0
 80016fa:	db05      	blt.n	8001708 <HAL_NVIC_EnableIRQ+0x10>
 80016fc:	231f      	movs	r3, #31
 80016fe:	4018      	ands	r0, r3
 8001700:	3b1e      	subs	r3, #30
 8001702:	4083      	lsls	r3, r0
 8001704:	4a01      	ldr	r2, [pc, #4]	; (800170c <HAL_NVIC_EnableIRQ+0x14>)
 8001706:	6013      	str	r3, [r2, #0]
 8001708:	4770      	bx	lr
 800170a:	46c0      	nop			; (mov r8, r8)
 800170c:	e000e100 	.word	0xe000e100

08001710 <HAL_SYSTICK_Config>:
 8001710:	4a0a      	ldr	r2, [pc, #40]	; (800173c <HAL_SYSTICK_Config+0x2c>)
 8001712:	1e43      	subs	r3, r0, #1
 8001714:	2001      	movs	r0, #1
 8001716:	4293      	cmp	r3, r2
 8001718:	d80e      	bhi.n	8001738 <HAL_SYSTICK_Config+0x28>
 800171a:	21c0      	movs	r1, #192	; 0xc0
 800171c:	4a08      	ldr	r2, [pc, #32]	; (8001740 <HAL_SYSTICK_Config+0x30>)
 800171e:	4809      	ldr	r0, [pc, #36]	; (8001744 <HAL_SYSTICK_Config+0x34>)
 8001720:	6053      	str	r3, [r2, #4]
 8001722:	6a03      	ldr	r3, [r0, #32]
 8001724:	0609      	lsls	r1, r1, #24
 8001726:	021b      	lsls	r3, r3, #8
 8001728:	0a1b      	lsrs	r3, r3, #8
 800172a:	430b      	orrs	r3, r1
 800172c:	6203      	str	r3, [r0, #32]
 800172e:	2300      	movs	r3, #0
 8001730:	2000      	movs	r0, #0
 8001732:	6093      	str	r3, [r2, #8]
 8001734:	3307      	adds	r3, #7
 8001736:	6013      	str	r3, [r2, #0]
 8001738:	4770      	bx	lr
 800173a:	46c0      	nop			; (mov r8, r8)
 800173c:	00ffffff 	.word	0x00ffffff
 8001740:	e000e010 	.word	0xe000e010
 8001744:	e000ed00 	.word	0xe000ed00

08001748 <HAL_DMA_Init>:
 8001748:	b570      	push	{r4, r5, r6, lr}
 800174a:	1e04      	subs	r4, r0, #0
 800174c:	d027      	beq.n	800179e <HAL_DMA_Init+0x56>
 800174e:	2521      	movs	r5, #33	; 0x21
 8001750:	2302      	movs	r3, #2
 8001752:	5543      	strb	r3, [r0, r5]
 8001754:	6800      	ldr	r0, [r0, #0]
 8001756:	4a13      	ldr	r2, [pc, #76]	; (80017a4 <HAL_DMA_Init+0x5c>)
 8001758:	6803      	ldr	r3, [r0, #0]
 800175a:	68a1      	ldr	r1, [r4, #8]
 800175c:	401a      	ands	r2, r3
 800175e:	6863      	ldr	r3, [r4, #4]
 8001760:	430b      	orrs	r3, r1
 8001762:	68e1      	ldr	r1, [r4, #12]
 8001764:	430b      	orrs	r3, r1
 8001766:	6921      	ldr	r1, [r4, #16]
 8001768:	430b      	orrs	r3, r1
 800176a:	6961      	ldr	r1, [r4, #20]
 800176c:	430b      	orrs	r3, r1
 800176e:	69a1      	ldr	r1, [r4, #24]
 8001770:	430b      	orrs	r3, r1
 8001772:	69e1      	ldr	r1, [r4, #28]
 8001774:	430b      	orrs	r3, r1
 8001776:	4313      	orrs	r3, r2
 8001778:	6003      	str	r3, [r0, #0]
 800177a:	4b0b      	ldr	r3, [pc, #44]	; (80017a8 <HAL_DMA_Init+0x60>)
 800177c:	2114      	movs	r1, #20
 800177e:	469c      	mov	ip, r3
 8001780:	4460      	add	r0, ip
 8001782:	f7fe fcc1 	bl	8000108 <__udivsi3>
 8001786:	4b09      	ldr	r3, [pc, #36]	; (80017ac <HAL_DMA_Init+0x64>)
 8001788:	2201      	movs	r2, #1
 800178a:	63e3      	str	r3, [r4, #60]	; 0x3c
 800178c:	2300      	movs	r3, #0
 800178e:	0080      	lsls	r0, r0, #2
 8001790:	6420      	str	r0, [r4, #64]	; 0x40
 8001792:	2000      	movs	r0, #0
 8001794:	63a3      	str	r3, [r4, #56]	; 0x38
 8001796:	5562      	strb	r2, [r4, r5]
 8001798:	321f      	adds	r2, #31
 800179a:	54a3      	strb	r3, [r4, r2]
 800179c:	bd70      	pop	{r4, r5, r6, pc}
 800179e:	2001      	movs	r0, #1
 80017a0:	e7fc      	b.n	800179c <HAL_DMA_Init+0x54>
 80017a2:	46c0      	nop			; (mov r8, r8)
 80017a4:	ffffc00f 	.word	0xffffc00f
 80017a8:	bffdfff8 	.word	0xbffdfff8
 80017ac:	40020000 	.word	0x40020000

080017b0 <HAL_DMA_Start_IT>:
 80017b0:	b5f0      	push	{r4, r5, r6, r7, lr}
 80017b2:	2520      	movs	r5, #32
 80017b4:	5d44      	ldrb	r4, [r0, r5]
 80017b6:	2c01      	cmp	r4, #1
 80017b8:	d029      	beq.n	800180e <HAL_DMA_Start_IT+0x5e>
 80017ba:	2401      	movs	r4, #1
 80017bc:	2621      	movs	r6, #33	; 0x21
 80017be:	5544      	strb	r4, [r0, r5]
 80017c0:	5d84      	ldrb	r4, [r0, r6]
 80017c2:	b2e4      	uxtb	r4, r4
 80017c4:	2c01      	cmp	r4, #1
 80017c6:	d11e      	bne.n	8001806 <HAL_DMA_Start_IT+0x56>
 80017c8:	3d1e      	subs	r5, #30
 80017ca:	5585      	strb	r5, [r0, r6]
 80017cc:	2500      	movs	r5, #0
 80017ce:	6385      	str	r5, [r0, #56]	; 0x38
 80017d0:	6805      	ldr	r5, [r0, #0]
 80017d2:	6c07      	ldr	r7, [r0, #64]	; 0x40
 80017d4:	682e      	ldr	r6, [r5, #0]
 80017d6:	43a6      	bics	r6, r4
 80017d8:	40bc      	lsls	r4, r7
 80017da:	602e      	str	r6, [r5, #0]
 80017dc:	6bc6      	ldr	r6, [r0, #60]	; 0x3c
 80017de:	6074      	str	r4, [r6, #4]
 80017e0:	606b      	str	r3, [r5, #4]
 80017e2:	6843      	ldr	r3, [r0, #4]
 80017e4:	2b10      	cmp	r3, #16
 80017e6:	d014      	beq.n	8001812 <HAL_DMA_Start_IT+0x62>
 80017e8:	6ac3      	ldr	r3, [r0, #44]	; 0x2c
 80017ea:	60a9      	str	r1, [r5, #8]
 80017ec:	60ea      	str	r2, [r5, #12]
 80017ee:	2b00      	cmp	r3, #0
 80017f0:	d014      	beq.n	800181c <HAL_DMA_Start_IT+0x6c>
 80017f2:	220e      	movs	r2, #14
 80017f4:	682b      	ldr	r3, [r5, #0]
 80017f6:	4313      	orrs	r3, r2
 80017f8:	602b      	str	r3, [r5, #0]
 80017fa:	2201      	movs	r2, #1
 80017fc:	2000      	movs	r0, #0
 80017fe:	682b      	ldr	r3, [r5, #0]
 8001800:	4313      	orrs	r3, r2
 8001802:	602b      	str	r3, [r5, #0]
 8001804:	bdf0      	pop	{r4, r5, r6, r7, pc}
 8001806:	2300      	movs	r3, #0
 8001808:	5543      	strb	r3, [r0, r5]
 800180a:	2002      	movs	r0, #2
 800180c:	e7fa      	b.n	8001804 <HAL_DMA_Start_IT+0x54>
 800180e:	2002      	movs	r0, #2
 8001810:	e7f8      	b.n	8001804 <HAL_DMA_Start_IT+0x54>
 8001812:	6ac3      	ldr	r3, [r0, #44]	; 0x2c
 8001814:	60aa      	str	r2, [r5, #8]
 8001816:	60e9      	str	r1, [r5, #12]
 8001818:	2b00      	cmp	r3, #0
 800181a:	d1ea      	bne.n	80017f2 <HAL_DMA_Start_IT+0x42>
 800181c:	220a      	movs	r2, #10
 800181e:	682b      	ldr	r3, [r5, #0]
 8001820:	4313      	orrs	r3, r2
 8001822:	602b      	str	r3, [r5, #0]
 8001824:	682b      	ldr	r3, [r5, #0]
 8001826:	3a06      	subs	r2, #6
 8001828:	4393      	bics	r3, r2
 800182a:	602b      	str	r3, [r5, #0]
 800182c:	e7e5      	b.n	80017fa <HAL_DMA_Start_IT+0x4a>
 800182e:	46c0      	nop			; (mov r8, r8)

08001830 <HAL_DMA_IRQHandler>:
 8001830:	b5f8      	push	{r3, r4, r5, r6, r7, lr}
 8001832:	2404      	movs	r4, #4
 8001834:	0026      	movs	r6, r4
 8001836:	6c03      	ldr	r3, [r0, #64]	; 0x40
 8001838:	6bc5      	ldr	r5, [r0, #60]	; 0x3c
 800183a:	409e      	lsls	r6, r3
 800183c:	682a      	ldr	r2, [r5, #0]
 800183e:	6801      	ldr	r1, [r0, #0]
 8001840:	680f      	ldr	r7, [r1, #0]
 8001842:	4232      	tst	r2, r6
 8001844:	d00d      	beq.n	8001862 <HAL_DMA_IRQHandler+0x32>
 8001846:	423c      	tst	r4, r7
 8001848:	d00b      	beq.n	8001862 <HAL_DMA_IRQHandler+0x32>
 800184a:	680b      	ldr	r3, [r1, #0]
 800184c:	069b      	lsls	r3, r3, #26
 800184e:	d402      	bmi.n	8001856 <HAL_DMA_IRQHandler+0x26>
 8001850:	680b      	ldr	r3, [r1, #0]
 8001852:	43a3      	bics	r3, r4
 8001854:	600b      	str	r3, [r1, #0]
 8001856:	6ac3      	ldr	r3, [r0, #44]	; 0x2c
 8001858:	606e      	str	r6, [r5, #4]
 800185a:	2b00      	cmp	r3, #0
 800185c:	d000      	beq.n	8001860 <HAL_DMA_IRQHandler+0x30>
 800185e:	4798      	blx	r3
 8001860:	bdf8      	pop	{r3, r4, r5, r6, r7, pc}
 8001862:	2402      	movs	r4, #2
 8001864:	0026      	movs	r6, r4
 8001866:	409e      	lsls	r6, r3
 8001868:	4232      	tst	r2, r6
 800186a:	d014      	beq.n	8001896 <HAL_DMA_IRQHandler+0x66>
 800186c:	423c      	tst	r4, r7
 800186e:	d012      	beq.n	8001896 <HAL_DMA_IRQHandler+0x66>
 8001870:	680b      	ldr	r3, [r1, #0]
 8001872:	069b      	lsls	r3, r3, #26
 8001874:	d406      	bmi.n	8001884 <HAL_DMA_IRQHandler+0x54>
 8001876:	220a      	movs	r2, #10
 8001878:	680b      	ldr	r3, [r1, #0]
 800187a:	4393      	bics	r3, r2
 800187c:	600b      	str	r3, [r1, #0]
 800187e:	2321      	movs	r3, #33	; 0x21
 8001880:	3a09      	subs	r2, #9
 8001882:	54c2      	strb	r2, [r0, r3]
 8001884:	2320      	movs	r3, #32
 8001886:	2200      	movs	r2, #0
 8001888:	606e      	str	r6, [r5, #4]
 800188a:	54c2      	strb	r2, [r0, r3]
 800188c:	6a83      	ldr	r3, [r0, #40]	; 0x28
 800188e:	2b00      	cmp	r3, #0
 8001890:	d0e6      	beq.n	8001860 <HAL_DMA_IRQHandler+0x30>
 8001892:	4798      	blx	r3
 8001894:	e7e4      	b.n	8001860 <HAL_DMA_IRQHandler+0x30>
 8001896:	2408      	movs	r4, #8
 8001898:	0026      	movs	r6, r4
 800189a:	409e      	lsls	r6, r3
 800189c:	4232      	tst	r2, r6
 800189e:	d0df      	beq.n	8001860 <HAL_DMA_IRQHandler+0x30>
 80018a0:	423c      	tst	r4, r7
 80018a2:	d0dd      	beq.n	8001860 <HAL_DMA_IRQHandler+0x30>
 80018a4:	680a      	ldr	r2, [r1, #0]
 80018a6:	3406      	adds	r4, #6
 80018a8:	43a2      	bics	r2, r4
 80018aa:	600a      	str	r2, [r1, #0]
 80018ac:	2201      	movs	r2, #1
 80018ae:	0011      	movs	r1, r2
 80018b0:	4099      	lsls	r1, r3
 80018b2:	2321      	movs	r3, #33	; 0x21
 80018b4:	6069      	str	r1, [r5, #4]
 80018b6:	6382      	str	r2, [r0, #56]	; 0x38
 80018b8:	54c2      	strb	r2, [r0, r3]
 80018ba:	2200      	movs	r2, #0
 80018bc:	3b01      	subs	r3, #1
 80018be:	54c2      	strb	r2, [r0, r3]
 80018c0:	6b03      	ldr	r3, [r0, #48]	; 0x30
 80018c2:	2b00      	cmp	r3, #0
 80018c4:	d0cc      	beq.n	8001860 <HAL_DMA_IRQHandler+0x30>
 80018c6:	4798      	blx	r3
 80018c8:	e7ca      	b.n	8001860 <HAL_DMA_IRQHandler+0x30>
 80018ca:	46c0      	nop			; (mov r8, r8)

080018cc <HAL_GPIO_Init>:
 80018cc:	b5f0      	push	{r4, r5, r6, r7, lr}
 80018ce:	464e      	mov	r6, r9
 80018d0:	46de      	mov	lr, fp
 80018d2:	4657      	mov	r7, sl
 80018d4:	4645      	mov	r5, r8
 80018d6:	b5e0      	push	{r5, r6, r7, lr}
 80018d8:	4689      	mov	r9, r1
 80018da:	6809      	ldr	r1, [r1, #0]
 80018dc:	b085      	sub	sp, #20
 80018de:	2900      	cmp	r1, #0
 80018e0:	d079      	beq.n	80019d6 <HAL_GPIO_Init+0x10a>
 80018e2:	4b68      	ldr	r3, [pc, #416]	; (8001a84 <HAL_GPIO_Init+0x1b8>)
 80018e4:	2200      	movs	r2, #0
 80018e6:	469b      	mov	fp, r3
 80018e8:	4b67      	ldr	r3, [pc, #412]	; (8001a88 <HAL_GPIO_Init+0x1bc>)
 80018ea:	468a      	mov	sl, r1
 80018ec:	4698      	mov	r8, r3
 80018ee:	2501      	movs	r5, #1
 80018f0:	4654      	mov	r4, sl
 80018f2:	4095      	lsls	r5, r2
 80018f4:	402c      	ands	r4, r5
 80018f6:	9400      	str	r4, [sp, #0]
 80018f8:	d069      	beq.n	80019ce <HAL_GPIO_Init+0x102>
 80018fa:	464b      	mov	r3, r9
 80018fc:	6859      	ldr	r1, [r3, #4]
 80018fe:	2310      	movs	r3, #16
 8001900:	000f      	movs	r7, r1
 8001902:	439f      	bics	r7, r3
 8001904:	9701      	str	r7, [sp, #4]
 8001906:	2f02      	cmp	r7, #2
 8001908:	d06c      	beq.n	80019e4 <HAL_GPIO_Init+0x118>
 800190a:	6803      	ldr	r3, [r0, #0]
 800190c:	0056      	lsls	r6, r2, #1
 800190e:	469c      	mov	ip, r3
 8001910:	2303      	movs	r3, #3
 8001912:	40b3      	lsls	r3, r6
 8001914:	4664      	mov	r4, ip
 8001916:	43db      	mvns	r3, r3
 8001918:	401c      	ands	r4, r3
 800191a:	0027      	movs	r7, r4
 800191c:	2403      	movs	r4, #3
 800191e:	400c      	ands	r4, r1
 8001920:	40b4      	lsls	r4, r6
 8001922:	46a4      	mov	ip, r4
 8001924:	003c      	movs	r4, r7
 8001926:	4667      	mov	r7, ip
 8001928:	433c      	orrs	r4, r7
 800192a:	9f01      	ldr	r7, [sp, #4]
 800192c:	6004      	str	r4, [r0, #0]
 800192e:	3f01      	subs	r7, #1
 8001930:	2f01      	cmp	r7, #1
 8001932:	d800      	bhi.n	8001936 <HAL_GPIO_Init+0x6a>
 8001934:	e073      	b.n	8001a1e <HAL_GPIO_Init+0x152>
 8001936:	68c5      	ldr	r5, [r0, #12]
 8001938:	402b      	ands	r3, r5
 800193a:	464d      	mov	r5, r9
 800193c:	68ad      	ldr	r5, [r5, #8]
 800193e:	40b5      	lsls	r5, r6
 8001940:	432b      	orrs	r3, r5
 8001942:	60c3      	str	r3, [r0, #12]
 8001944:	2380      	movs	r3, #128	; 0x80
 8001946:	055b      	lsls	r3, r3, #21
 8001948:	4219      	tst	r1, r3
 800194a:	d040      	beq.n	80019ce <HAL_GPIO_Init+0x102>
 800194c:	465b      	mov	r3, fp
 800194e:	2401      	movs	r4, #1
 8001950:	465d      	mov	r5, fp
 8001952:	2603      	movs	r6, #3
 8001954:	270f      	movs	r7, #15
 8001956:	699b      	ldr	r3, [r3, #24]
 8001958:	4016      	ands	r6, r2
 800195a:	4323      	orrs	r3, r4
 800195c:	61ab      	str	r3, [r5, #24]
 800195e:	69ab      	ldr	r3, [r5, #24]
 8001960:	00b6      	lsls	r6, r6, #2
 8001962:	4023      	ands	r3, r4
 8001964:	4c49      	ldr	r4, [pc, #292]	; (8001a8c <HAL_GPIO_Init+0x1c0>)
 8001966:	40b7      	lsls	r7, r6
 8001968:	46a4      	mov	ip, r4
 800196a:	2490      	movs	r4, #144	; 0x90
 800196c:	9303      	str	r3, [sp, #12]
 800196e:	9b03      	ldr	r3, [sp, #12]
 8001970:	0893      	lsrs	r3, r2, #2
 8001972:	009b      	lsls	r3, r3, #2
 8001974:	4463      	add	r3, ip
 8001976:	689d      	ldr	r5, [r3, #8]
 8001978:	05e4      	lsls	r4, r4, #23
 800197a:	43bd      	bics	r5, r7
 800197c:	42a0      	cmp	r0, r4
 800197e:	d00a      	beq.n	8001996 <HAL_GPIO_Init+0xca>
 8001980:	4f43      	ldr	r7, [pc, #268]	; (8001a90 <HAL_GPIO_Init+0x1c4>)
 8001982:	42b8      	cmp	r0, r7
 8001984:	d100      	bne.n	8001988 <HAL_GPIO_Init+0xbc>
 8001986:	e078      	b.n	8001a7a <HAL_GPIO_Init+0x1ae>
 8001988:	4f42      	ldr	r7, [pc, #264]	; (8001a94 <HAL_GPIO_Init+0x1c8>)
 800198a:	42b8      	cmp	r0, r7
 800198c:	d100      	bne.n	8001990 <HAL_GPIO_Init+0xc4>
 800198e:	e070      	b.n	8001a72 <HAL_GPIO_Init+0x1a6>
 8001990:	2705      	movs	r7, #5
 8001992:	40b7      	lsls	r7, r6
 8001994:	433d      	orrs	r5, r7
 8001996:	609d      	str	r5, [r3, #8]
 8001998:	4643      	mov	r3, r8
 800199a:	9c00      	ldr	r4, [sp, #0]
 800199c:	681b      	ldr	r3, [r3, #0]
 800199e:	43e5      	mvns	r5, r4
 80019a0:	03cc      	lsls	r4, r1, #15
 80019a2:	d44e      	bmi.n	8001a42 <HAL_GPIO_Init+0x176>
 80019a4:	4644      	mov	r4, r8
 80019a6:	402b      	ands	r3, r5
 80019a8:	6023      	str	r3, [r4, #0]
 80019aa:	6863      	ldr	r3, [r4, #4]
 80019ac:	038c      	lsls	r4, r1, #14
 80019ae:	d44f      	bmi.n	8001a50 <HAL_GPIO_Init+0x184>
 80019b0:	4644      	mov	r4, r8
 80019b2:	402b      	ands	r3, r5
 80019b4:	6063      	str	r3, [r4, #4]
 80019b6:	68a3      	ldr	r3, [r4, #8]
 80019b8:	02cc      	lsls	r4, r1, #11
 80019ba:	d450      	bmi.n	8001a5e <HAL_GPIO_Init+0x192>
 80019bc:	4644      	mov	r4, r8
 80019be:	402b      	ands	r3, r5
 80019c0:	60a3      	str	r3, [r4, #8]
 80019c2:	68e3      	ldr	r3, [r4, #12]
 80019c4:	0289      	lsls	r1, r1, #10
 80019c6:	d451      	bmi.n	8001a6c <HAL_GPIO_Init+0x1a0>
 80019c8:	402b      	ands	r3, r5
 80019ca:	4641      	mov	r1, r8
 80019cc:	60cb      	str	r3, [r1, #12]
 80019ce:	4653      	mov	r3, sl
 80019d0:	3201      	adds	r2, #1
 80019d2:	40d3      	lsrs	r3, r2
 80019d4:	d18b      	bne.n	80018ee <HAL_GPIO_Init+0x22>
 80019d6:	b005      	add	sp, #20
 80019d8:	bc3c      	pop	{r2, r3, r4, r5}
 80019da:	4690      	mov	r8, r2
 80019dc:	4699      	mov	r9, r3
 80019de:	46a2      	mov	sl, r4
 80019e0:	46ab      	mov	fp, r5
 80019e2:	bdf0      	pop	{r4, r5, r6, r7, pc}
 80019e4:	2607      	movs	r6, #7
 80019e6:	240f      	movs	r4, #15
 80019e8:	4016      	ands	r6, r2
 80019ea:	00b6      	lsls	r6, r6, #2
 80019ec:	40b4      	lsls	r4, r6
 80019ee:	08d3      	lsrs	r3, r2, #3
 80019f0:	009b      	lsls	r3, r3, #2
 80019f2:	18c3      	adds	r3, r0, r3
 80019f4:	6a1f      	ldr	r7, [r3, #32]
 80019f6:	43a7      	bics	r7, r4
 80019f8:	464c      	mov	r4, r9
 80019fa:	6924      	ldr	r4, [r4, #16]
 80019fc:	40b4      	lsls	r4, r6
 80019fe:	0026      	movs	r6, r4
 8001a00:	433e      	orrs	r6, r7
 8001a02:	621e      	str	r6, [r3, #32]
 8001a04:	2303      	movs	r3, #3
 8001a06:	0056      	lsls	r6, r2, #1
 8001a08:	40b3      	lsls	r3, r6
 8001a0a:	43db      	mvns	r3, r3
 8001a0c:	6807      	ldr	r7, [r0, #0]
 8001a0e:	401f      	ands	r7, r3
 8001a10:	46bc      	mov	ip, r7
 8001a12:	2703      	movs	r7, #3
 8001a14:	400f      	ands	r7, r1
 8001a16:	40b7      	lsls	r7, r6
 8001a18:	4664      	mov	r4, ip
 8001a1a:	4327      	orrs	r7, r4
 8001a1c:	6007      	str	r7, [r0, #0]
 8001a1e:	6887      	ldr	r7, [r0, #8]
 8001a20:	464c      	mov	r4, r9
 8001a22:	401f      	ands	r7, r3
 8001a24:	46bc      	mov	ip, r7
 8001a26:	68e7      	ldr	r7, [r4, #12]
 8001a28:	4664      	mov	r4, ip
 8001a2a:	40b7      	lsls	r7, r6
 8001a2c:	4327      	orrs	r7, r4
 8001a2e:	2401      	movs	r4, #1
 8001a30:	6087      	str	r7, [r0, #8]
 8001a32:	6847      	ldr	r7, [r0, #4]
 8001a34:	43af      	bics	r7, r5
 8001a36:	090d      	lsrs	r5, r1, #4
 8001a38:	4025      	ands	r5, r4
 8001a3a:	4095      	lsls	r5, r2
 8001a3c:	433d      	orrs	r5, r7
 8001a3e:	6045      	str	r5, [r0, #4]
 8001a40:	e779      	b.n	8001936 <HAL_GPIO_Init+0x6a>
 8001a42:	9c00      	ldr	r4, [sp, #0]
 8001a44:	4323      	orrs	r3, r4
 8001a46:	4644      	mov	r4, r8
 8001a48:	6023      	str	r3, [r4, #0]
 8001a4a:	6863      	ldr	r3, [r4, #4]
 8001a4c:	038c      	lsls	r4, r1, #14
 8001a4e:	d5af      	bpl.n	80019b0 <HAL_GPIO_Init+0xe4>
 8001a50:	9c00      	ldr	r4, [sp, #0]
 8001a52:	4323      	orrs	r3, r4
 8001a54:	4644      	mov	r4, r8
 8001a56:	6063      	str	r3, [r4, #4]
 8001a58:	68a3      	ldr	r3, [r4, #8]
 8001a5a:	02cc      	lsls	r4, r1, #11
 8001a5c:	d5ae      	bpl.n	80019bc <HAL_GPIO_Init+0xf0>
 8001a5e:	9c00      	ldr	r4, [sp, #0]
 8001a60:	4323      	orrs	r3, r4
 8001a62:	4644      	mov	r4, r8
 8001a64:	60a3      	str	r3, [r4, #8]
 8001a66:	68e3      	ldr	r3, [r4, #12]
 8001a68:	0289      	lsls	r1, r1, #10
 8001a6a:	d5ad      	bpl.n	80019c8 <HAL_GPIO_Init+0xfc>
 8001a6c:	9900      	ldr	r1, [sp, #0]
 8001a6e:	430b      	orrs	r3, r1
 8001a70:	e7ab      	b.n	80019ca <HAL_GPIO_Init+0xfe>
 8001a72:	2702      	movs	r7, #2
 8001a74:	40b7      	lsls	r7, r6
 8001a76:	433d      	orrs	r5, r7
 8001a78:	e78d      	b.n	8001996 <HAL_GPIO_Init+0xca>
 8001a7a:	2401      	movs	r4, #1
 8001a7c:	40b4      	lsls	r4, r6
 8001a7e:	4325      	orrs	r5, r4
 8001a80:	e789      	b.n	8001996 <HAL_GPIO_Init+0xca>
 8001a82:	46c0      	nop			; (mov r8, r8)
 8001a84:	40021000 	.word	0x40021000
 8001a88:	40010400 	.word	0x40010400
 8001a8c:	40010000 	.word	0x40010000
 8001a90:	48000400 	.word	0x48000400
 8001a94:	48000800 	.word	0x48000800

08001a98 <HAL_RCC_OscConfig>:
 8001a98:	b5f0      	push	{r4, r5, r6, r7, lr}
 8001a9a:	46ce      	mov	lr, r9
 8001a9c:	4647      	mov	r7, r8
 8001a9e:	b580      	push	{r7, lr}
 8001aa0:	0004      	movs	r4, r0
 8001aa2:	b083      	sub	sp, #12
 8001aa4:	2800      	cmp	r0, #0
 8001aa6:	d100      	bne.n	8001aaa <HAL_RCC_OscConfig+0x12>
 8001aa8:	e0f6      	b.n	8001c98 <HAL_RCC_OscConfig+0x200>
 8001aaa:	6803      	ldr	r3, [r0, #0]
 8001aac:	07da      	lsls	r2, r3, #31
 8001aae:	d535      	bpl.n	8001b1c <HAL_RCC_OscConfig+0x84>
 8001ab0:	210c      	movs	r1, #12
 8001ab2:	48c0      	ldr	r0, [pc, #768]	; (8001db4 <HAL_RCC_OscConfig+0x31c>)
 8001ab4:	6842      	ldr	r2, [r0, #4]
 8001ab6:	400a      	ands	r2, r1
 8001ab8:	2a04      	cmp	r2, #4
 8001aba:	d100      	bne.n	8001abe <HAL_RCC_OscConfig+0x26>
 8001abc:	e15e      	b.n	8001d7c <HAL_RCC_OscConfig+0x2e4>
 8001abe:	6842      	ldr	r2, [r0, #4]
 8001ac0:	4011      	ands	r1, r2
 8001ac2:	2908      	cmp	r1, #8
 8001ac4:	d100      	bne.n	8001ac8 <HAL_RCC_OscConfig+0x30>
 8001ac6:	e150      	b.n	8001d6a <HAL_RCC_OscConfig+0x2d2>
 8001ac8:	6863      	ldr	r3, [r4, #4]
 8001aca:	2b01      	cmp	r3, #1
 8001acc:	d00f      	beq.n	8001aee <HAL_RCC_OscConfig+0x56>
 8001ace:	2b00      	cmp	r3, #0
 8001ad0:	d100      	bne.n	8001ad4 <HAL_RCC_OscConfig+0x3c>
 8001ad2:	e17d      	b.n	8001dd0 <HAL_RCC_OscConfig+0x338>
 8001ad4:	2b05      	cmp	r3, #5
 8001ad6:	d100      	bne.n	8001ada <HAL_RCC_OscConfig+0x42>
 8001ad8:	e1ed      	b.n	8001eb6 <HAL_RCC_OscConfig+0x41e>
 8001ada:	4bb6      	ldr	r3, [pc, #728]	; (8001db4 <HAL_RCC_OscConfig+0x31c>)
 8001adc:	49b6      	ldr	r1, [pc, #728]	; (8001db8 <HAL_RCC_OscConfig+0x320>)
 8001ade:	681a      	ldr	r2, [r3, #0]
 8001ae0:	400a      	ands	r2, r1
 8001ae2:	601a      	str	r2, [r3, #0]
 8001ae4:	681a      	ldr	r2, [r3, #0]
 8001ae6:	49b5      	ldr	r1, [pc, #724]	; (8001dbc <HAL_RCC_OscConfig+0x324>)
 8001ae8:	400a      	ands	r2, r1
 8001aea:	601a      	str	r2, [r3, #0]
 8001aec:	e005      	b.n	8001afa <HAL_RCC_OscConfig+0x62>
 8001aee:	2380      	movs	r3, #128	; 0x80
 8001af0:	4ab0      	ldr	r2, [pc, #704]	; (8001db4 <HAL_RCC_OscConfig+0x31c>)
 8001af2:	025b      	lsls	r3, r3, #9
 8001af4:	6811      	ldr	r1, [r2, #0]
 8001af6:	430b      	orrs	r3, r1
 8001af8:	6013      	str	r3, [r2, #0]
 8001afa:	f7ff fa23 	bl	8000f44 <HAL_GetTick>
 8001afe:	2580      	movs	r5, #128	; 0x80
 8001b00:	0007      	movs	r7, r0
 8001b02:	4eac      	ldr	r6, [pc, #688]	; (8001db4 <HAL_RCC_OscConfig+0x31c>)
 8001b04:	02ad      	lsls	r5, r5, #10
 8001b06:	e005      	b.n	8001b14 <HAL_RCC_OscConfig+0x7c>
 8001b08:	f7ff fa1c 	bl	8000f44 <HAL_GetTick>
 8001b0c:	1bc0      	subs	r0, r0, r7
 8001b0e:	2864      	cmp	r0, #100	; 0x64
 8001b10:	d900      	bls.n	8001b14 <HAL_RCC_OscConfig+0x7c>
 8001b12:	e14d      	b.n	8001db0 <HAL_RCC_OscConfig+0x318>
 8001b14:	6833      	ldr	r3, [r6, #0]
 8001b16:	422b      	tst	r3, r5
 8001b18:	d0f6      	beq.n	8001b08 <HAL_RCC_OscConfig+0x70>
 8001b1a:	6823      	ldr	r3, [r4, #0]
 8001b1c:	079a      	lsls	r2, r3, #30
 8001b1e:	d444      	bmi.n	8001baa <HAL_RCC_OscConfig+0x112>
 8001b20:	071a      	lsls	r2, r3, #28
 8001b22:	d517      	bpl.n	8001b54 <HAL_RCC_OscConfig+0xbc>
 8001b24:	69e3      	ldr	r3, [r4, #28]
 8001b26:	4da3      	ldr	r5, [pc, #652]	; (8001db4 <HAL_RCC_OscConfig+0x31c>)
 8001b28:	2b00      	cmp	r3, #0
 8001b2a:	d100      	bne.n	8001b2e <HAL_RCC_OscConfig+0x96>
 8001b2c:	e0d3      	b.n	8001cd6 <HAL_RCC_OscConfig+0x23e>
 8001b2e:	2201      	movs	r2, #1
 8001b30:	6a6b      	ldr	r3, [r5, #36]	; 0x24
 8001b32:	2602      	movs	r6, #2
 8001b34:	4313      	orrs	r3, r2
 8001b36:	626b      	str	r3, [r5, #36]	; 0x24
 8001b38:	f7ff fa04 	bl	8000f44 <HAL_GetTick>
 8001b3c:	0007      	movs	r7, r0
 8001b3e:	e005      	b.n	8001b4c <HAL_RCC_OscConfig+0xb4>
 8001b40:	f7ff fa00 	bl	8000f44 <HAL_GetTick>
 8001b44:	1bc0      	subs	r0, r0, r7
 8001b46:	2802      	cmp	r0, #2
 8001b48:	d900      	bls.n	8001b4c <HAL_RCC_OscConfig+0xb4>
 8001b4a:	e131      	b.n	8001db0 <HAL_RCC_OscConfig+0x318>
 8001b4c:	6a6b      	ldr	r3, [r5, #36]	; 0x24
 8001b4e:	421e      	tst	r6, r3
 8001b50:	d0f6      	beq.n	8001b40 <HAL_RCC_OscConfig+0xa8>
 8001b52:	6823      	ldr	r3, [r4, #0]
 8001b54:	075a      	lsls	r2, r3, #29
 8001b56:	d571      	bpl.n	8001c3c <HAL_RCC_OscConfig+0x1a4>
 8001b58:	2280      	movs	r2, #128	; 0x80
 8001b5a:	4b96      	ldr	r3, [pc, #600]	; (8001db4 <HAL_RCC_OscConfig+0x31c>)
 8001b5c:	0552      	lsls	r2, r2, #21
 8001b5e:	69d9      	ldr	r1, [r3, #28]
 8001b60:	2500      	movs	r5, #0
 8001b62:	4211      	tst	r1, r2
 8001b64:	d107      	bne.n	8001b76 <HAL_RCC_OscConfig+0xde>
 8001b66:	69d9      	ldr	r1, [r3, #28]
 8001b68:	3501      	adds	r5, #1
 8001b6a:	4311      	orrs	r1, r2
 8001b6c:	61d9      	str	r1, [r3, #28]
 8001b6e:	69db      	ldr	r3, [r3, #28]
 8001b70:	401a      	ands	r2, r3
 8001b72:	9201      	str	r2, [sp, #4]
 8001b74:	9b01      	ldr	r3, [sp, #4]
 8001b76:	2680      	movs	r6, #128	; 0x80
 8001b78:	4f91      	ldr	r7, [pc, #580]	; (8001dc0 <HAL_RCC_OscConfig+0x328>)
 8001b7a:	0076      	lsls	r6, r6, #1
 8001b7c:	683b      	ldr	r3, [r7, #0]
 8001b7e:	4233      	tst	r3, r6
 8001b80:	d100      	bne.n	8001b84 <HAL_RCC_OscConfig+0xec>
 8001b82:	e105      	b.n	8001d90 <HAL_RCC_OscConfig+0x2f8>
 8001b84:	68a3      	ldr	r3, [r4, #8]
 8001b86:	2b01      	cmp	r3, #1
 8001b88:	d03a      	beq.n	8001c00 <HAL_RCC_OscConfig+0x168>
 8001b8a:	2b00      	cmp	r3, #0
 8001b8c:	d100      	bne.n	8001b90 <HAL_RCC_OscConfig+0xf8>
 8001b8e:	e138      	b.n	8001e02 <HAL_RCC_OscConfig+0x36a>
 8001b90:	2b05      	cmp	r3, #5
 8001b92:	d100      	bne.n	8001b96 <HAL_RCC_OscConfig+0xfe>
 8001b94:	e1d3      	b.n	8001f3e <HAL_RCC_OscConfig+0x4a6>
 8001b96:	2101      	movs	r1, #1
 8001b98:	4b86      	ldr	r3, [pc, #536]	; (8001db4 <HAL_RCC_OscConfig+0x31c>)
 8001b9a:	6a1a      	ldr	r2, [r3, #32]
 8001b9c:	438a      	bics	r2, r1
 8001b9e:	621a      	str	r2, [r3, #32]
 8001ba0:	6a1a      	ldr	r2, [r3, #32]
 8001ba2:	3103      	adds	r1, #3
 8001ba4:	438a      	bics	r2, r1
 8001ba6:	621a      	str	r2, [r3, #32]
 8001ba8:	e02e      	b.n	8001c08 <HAL_RCC_OscConfig+0x170>
 8001baa:	220c      	movs	r2, #12
 8001bac:	4981      	ldr	r1, [pc, #516]	; (8001db4 <HAL_RCC_OscConfig+0x31c>)
 8001bae:	6848      	ldr	r0, [r1, #4]
 8001bb0:	4202      	tst	r2, r0
 8001bb2:	d100      	bne.n	8001bb6 <HAL_RCC_OscConfig+0x11e>
 8001bb4:	e07f      	b.n	8001cb6 <HAL_RCC_OscConfig+0x21e>
 8001bb6:	6848      	ldr	r0, [r1, #4]
 8001bb8:	4002      	ands	r2, r0
 8001bba:	2a08      	cmp	r2, #8
 8001bbc:	d100      	bne.n	8001bc0 <HAL_RCC_OscConfig+0x128>
 8001bbe:	e071      	b.n	8001ca4 <HAL_RCC_OscConfig+0x20c>
 8001bc0:	68e3      	ldr	r3, [r4, #12]
 8001bc2:	2b00      	cmp	r3, #0
 8001bc4:	d100      	bne.n	8001bc8 <HAL_RCC_OscConfig+0x130>
 8001bc6:	e136      	b.n	8001e36 <HAL_RCC_OscConfig+0x39e>
 8001bc8:	2201      	movs	r2, #1
 8001bca:	4f7a      	ldr	r7, [pc, #488]	; (8001db4 <HAL_RCC_OscConfig+0x31c>)
 8001bcc:	2502      	movs	r5, #2
 8001bce:	683b      	ldr	r3, [r7, #0]
 8001bd0:	4313      	orrs	r3, r2
 8001bd2:	603b      	str	r3, [r7, #0]
 8001bd4:	f7ff f9b6 	bl	8000f44 <HAL_GetTick>
 8001bd8:	0006      	movs	r6, r0
 8001bda:	e005      	b.n	8001be8 <HAL_RCC_OscConfig+0x150>
 8001bdc:	f7ff f9b2 	bl	8000f44 <HAL_GetTick>
 8001be0:	1b80      	subs	r0, r0, r6
 8001be2:	2802      	cmp	r0, #2
 8001be4:	d900      	bls.n	8001be8 <HAL_RCC_OscConfig+0x150>
 8001be6:	e0e3      	b.n	8001db0 <HAL_RCC_OscConfig+0x318>
 8001be8:	683b      	ldr	r3, [r7, #0]
 8001bea:	421d      	tst	r5, r3
 8001bec:	d0f6      	beq.n	8001bdc <HAL_RCC_OscConfig+0x144>
 8001bee:	21f8      	movs	r1, #248	; 0xf8
 8001bf0:	683a      	ldr	r2, [r7, #0]
 8001bf2:	6923      	ldr	r3, [r4, #16]
 8001bf4:	438a      	bics	r2, r1
 8001bf6:	00db      	lsls	r3, r3, #3
 8001bf8:	4313      	orrs	r3, r2
 8001bfa:	603b      	str	r3, [r7, #0]
 8001bfc:	6823      	ldr	r3, [r4, #0]
 8001bfe:	e78f      	b.n	8001b20 <HAL_RCC_OscConfig+0x88>
 8001c00:	496c      	ldr	r1, [pc, #432]	; (8001db4 <HAL_RCC_OscConfig+0x31c>)
 8001c02:	6a0a      	ldr	r2, [r1, #32]
 8001c04:	4313      	orrs	r3, r2
 8001c06:	620b      	str	r3, [r1, #32]
 8001c08:	f7ff f99c 	bl	8000f44 <HAL_GetTick>
 8001c0c:	4b6d      	ldr	r3, [pc, #436]	; (8001dc4 <HAL_RCC_OscConfig+0x32c>)
 8001c0e:	4681      	mov	r9, r0
 8001c10:	4f68      	ldr	r7, [pc, #416]	; (8001db4 <HAL_RCC_OscConfig+0x31c>)
 8001c12:	2602      	movs	r6, #2
 8001c14:	4698      	mov	r8, r3
 8001c16:	e006      	b.n	8001c26 <HAL_RCC_OscConfig+0x18e>
 8001c18:	f7ff f994 	bl	8000f44 <HAL_GetTick>
 8001c1c:	464b      	mov	r3, r9
 8001c1e:	1ac0      	subs	r0, r0, r3
 8001c20:	4540      	cmp	r0, r8
 8001c22:	d900      	bls.n	8001c26 <HAL_RCC_OscConfig+0x18e>
 8001c24:	e0c4      	b.n	8001db0 <HAL_RCC_OscConfig+0x318>
 8001c26:	6a3b      	ldr	r3, [r7, #32]
 8001c28:	421e      	tst	r6, r3
 8001c2a:	d0f5      	beq.n	8001c18 <HAL_RCC_OscConfig+0x180>
 8001c2c:	2d01      	cmp	r5, #1
 8001c2e:	d104      	bne.n	8001c3a <HAL_RCC_OscConfig+0x1a2>
 8001c30:	4a60      	ldr	r2, [pc, #384]	; (8001db4 <HAL_RCC_OscConfig+0x31c>)
 8001c32:	4965      	ldr	r1, [pc, #404]	; (8001dc8 <HAL_RCC_OscConfig+0x330>)
 8001c34:	69d3      	ldr	r3, [r2, #28]
 8001c36:	400b      	ands	r3, r1
 8001c38:	61d3      	str	r3, [r2, #28]
 8001c3a:	6823      	ldr	r3, [r4, #0]
 8001c3c:	06da      	lsls	r2, r3, #27
 8001c3e:	d512      	bpl.n	8001c66 <HAL_RCC_OscConfig+0x1ce>
 8001c40:	6962      	ldr	r2, [r4, #20]
 8001c42:	2a01      	cmp	r2, #1
 8001c44:	d100      	bne.n	8001c48 <HAL_RCC_OscConfig+0x1b0>
 8001c46:	e19f      	b.n	8001f88 <HAL_RCC_OscConfig+0x4f0>
 8001c48:	3205      	adds	r2, #5
 8001c4a:	d000      	beq.n	8001c4e <HAL_RCC_OscConfig+0x1b6>
 8001c4c:	e107      	b.n	8001e5e <HAL_RCC_OscConfig+0x3c6>
 8001c4e:	2004      	movs	r0, #4
 8001c50:	25f8      	movs	r5, #248	; 0xf8
 8001c52:	4958      	ldr	r1, [pc, #352]	; (8001db4 <HAL_RCC_OscConfig+0x31c>)
 8001c54:	6b4a      	ldr	r2, [r1, #52]	; 0x34
 8001c56:	4382      	bics	r2, r0
 8001c58:	634a      	str	r2, [r1, #52]	; 0x34
 8001c5a:	6b48      	ldr	r0, [r1, #52]	; 0x34
 8001c5c:	69a2      	ldr	r2, [r4, #24]
 8001c5e:	43a8      	bics	r0, r5
 8001c60:	00d2      	lsls	r2, r2, #3
 8001c62:	4302      	orrs	r2, r0
 8001c64:	634a      	str	r2, [r1, #52]	; 0x34
 8001c66:	069b      	lsls	r3, r3, #26
 8001c68:	d55e      	bpl.n	8001d28 <HAL_RCC_OscConfig+0x290>
 8001c6a:	220c      	movs	r2, #12
 8001c6c:	4951      	ldr	r1, [pc, #324]	; (8001db4 <HAL_RCC_OscConfig+0x31c>)
 8001c6e:	684b      	ldr	r3, [r1, #4]
 8001c70:	4013      	ands	r3, r2
 8001c72:	2b0c      	cmp	r3, #12
 8001c74:	d009      	beq.n	8001c8a <HAL_RCC_OscConfig+0x1f2>
 8001c76:	684b      	ldr	r3, [r1, #4]
 8001c78:	401a      	ands	r2, r3
 8001c7a:	2a08      	cmp	r2, #8
 8001c7c:	d13e      	bne.n	8001cfc <HAL_RCC_OscConfig+0x264>
 8001c7e:	22c0      	movs	r2, #192	; 0xc0
 8001c80:	684b      	ldr	r3, [r1, #4]
 8001c82:	0252      	lsls	r2, r2, #9
 8001c84:	4013      	ands	r3, r2
 8001c86:	4293      	cmp	r3, r2
 8001c88:	d138      	bne.n	8001cfc <HAL_RCC_OscConfig+0x264>
 8001c8a:	4b4a      	ldr	r3, [pc, #296]	; (8001db4 <HAL_RCC_OscConfig+0x31c>)
 8001c8c:	6b5b      	ldr	r3, [r3, #52]	; 0x34
 8001c8e:	03db      	lsls	r3, r3, #15
 8001c90:	d54a      	bpl.n	8001d28 <HAL_RCC_OscConfig+0x290>
 8001c92:	6a23      	ldr	r3, [r4, #32]
 8001c94:	2b01      	cmp	r3, #1
 8001c96:	d047      	beq.n	8001d28 <HAL_RCC_OscConfig+0x290>
 8001c98:	2001      	movs	r0, #1
 8001c9a:	b003      	add	sp, #12
 8001c9c:	bc0c      	pop	{r2, r3}
 8001c9e:	4690      	mov	r8, r2
 8001ca0:	4699      	mov	r9, r3
 8001ca2:	bdf0      	pop	{r4, r5, r6, r7, pc}
 8001ca4:	684a      	ldr	r2, [r1, #4]
 8001ca6:	21c0      	movs	r1, #192	; 0xc0
 8001ca8:	0249      	lsls	r1, r1, #9
 8001caa:	400a      	ands	r2, r1
 8001cac:	2180      	movs	r1, #128	; 0x80
 8001cae:	0209      	lsls	r1, r1, #8
 8001cb0:	428a      	cmp	r2, r1
 8001cb2:	d000      	beq.n	8001cb6 <HAL_RCC_OscConfig+0x21e>
 8001cb4:	e784      	b.n	8001bc0 <HAL_RCC_OscConfig+0x128>
 8001cb6:	4a3f      	ldr	r2, [pc, #252]	; (8001db4 <HAL_RCC_OscConfig+0x31c>)
 8001cb8:	6812      	ldr	r2, [r2, #0]
 8001cba:	0792      	lsls	r2, r2, #30
 8001cbc:	d502      	bpl.n	8001cc4 <HAL_RCC_OscConfig+0x22c>
 8001cbe:	68e2      	ldr	r2, [r4, #12]
 8001cc0:	2a01      	cmp	r2, #1
 8001cc2:	d1e9      	bne.n	8001c98 <HAL_RCC_OscConfig+0x200>
 8001cc4:	25f8      	movs	r5, #248	; 0xf8
 8001cc6:	483b      	ldr	r0, [pc, #236]	; (8001db4 <HAL_RCC_OscConfig+0x31c>)
 8001cc8:	6922      	ldr	r2, [r4, #16]
 8001cca:	6801      	ldr	r1, [r0, #0]
 8001ccc:	00d2      	lsls	r2, r2, #3
 8001cce:	43a9      	bics	r1, r5
 8001cd0:	430a      	orrs	r2, r1
 8001cd2:	6002      	str	r2, [r0, #0]
 8001cd4:	e724      	b.n	8001b20 <HAL_RCC_OscConfig+0x88>
 8001cd6:	2201      	movs	r2, #1
 8001cd8:	6a6b      	ldr	r3, [r5, #36]	; 0x24
 8001cda:	2602      	movs	r6, #2
 8001cdc:	4393      	bics	r3, r2
 8001cde:	626b      	str	r3, [r5, #36]	; 0x24
 8001ce0:	f7ff f930 	bl	8000f44 <HAL_GetTick>
 8001ce4:	0007      	movs	r7, r0
 8001ce6:	e004      	b.n	8001cf2 <HAL_RCC_OscConfig+0x25a>
 8001ce8:	f7ff f92c 	bl	8000f44 <HAL_GetTick>
 8001cec:	1bc0      	subs	r0, r0, r7
 8001cee:	2802      	cmp	r0, #2
 8001cf0:	d85e      	bhi.n	8001db0 <HAL_RCC_OscConfig+0x318>
 8001cf2:	6a6b      	ldr	r3, [r5, #36]	; 0x24
 8001cf4:	421e      	tst	r6, r3
 8001cf6:	d1f7      	bne.n	8001ce8 <HAL_RCC_OscConfig+0x250>
 8001cf8:	6823      	ldr	r3, [r4, #0]
 8001cfa:	e72b      	b.n	8001b54 <HAL_RCC_OscConfig+0xbc>
 8001cfc:	6a23      	ldr	r3, [r4, #32]
 8001cfe:	4d2d      	ldr	r5, [pc, #180]	; (8001db4 <HAL_RCC_OscConfig+0x31c>)
 8001d00:	2b00      	cmp	r3, #0
 8001d02:	d100      	bne.n	8001d06 <HAL_RCC_OscConfig+0x26e>
 8001d04:	e0c3      	b.n	8001e8e <HAL_RCC_OscConfig+0x3f6>
 8001d06:	2680      	movs	r6, #128	; 0x80
 8001d08:	6b6b      	ldr	r3, [r5, #52]	; 0x34
 8001d0a:	0276      	lsls	r6, r6, #9
 8001d0c:	4333      	orrs	r3, r6
 8001d0e:	636b      	str	r3, [r5, #52]	; 0x34
 8001d10:	f7ff f918 	bl	8000f44 <HAL_GetTick>
 8001d14:	0007      	movs	r7, r0
 8001d16:	e004      	b.n	8001d22 <HAL_RCC_OscConfig+0x28a>
 8001d18:	f7ff f914 	bl	8000f44 <HAL_GetTick>
 8001d1c:	1bc0      	subs	r0, r0, r7
 8001d1e:	2802      	cmp	r0, #2
 8001d20:	d846      	bhi.n	8001db0 <HAL_RCC_OscConfig+0x318>
 8001d22:	6b6b      	ldr	r3, [r5, #52]	; 0x34
 8001d24:	4233      	tst	r3, r6
 8001d26:	d0f7      	beq.n	8001d18 <HAL_RCC_OscConfig+0x280>
 8001d28:	6a63      	ldr	r3, [r4, #36]	; 0x24
 8001d2a:	2b00      	cmp	r3, #0
 8001d2c:	d01b      	beq.n	8001d66 <HAL_RCC_OscConfig+0x2ce>
 8001d2e:	220c      	movs	r2, #12
 8001d30:	4d20      	ldr	r5, [pc, #128]	; (8001db4 <HAL_RCC_OscConfig+0x31c>)
 8001d32:	6869      	ldr	r1, [r5, #4]
 8001d34:	400a      	ands	r2, r1
 8001d36:	2a08      	cmp	r2, #8
 8001d38:	d100      	bne.n	8001d3c <HAL_RCC_OscConfig+0x2a4>
 8001d3a:	e10a      	b.n	8001f52 <HAL_RCC_OscConfig+0x4ba>
 8001d3c:	2b02      	cmp	r3, #2
 8001d3e:	d100      	bne.n	8001d42 <HAL_RCC_OscConfig+0x2aa>
 8001d40:	e0c5      	b.n	8001ece <HAL_RCC_OscConfig+0x436>
 8001d42:	682b      	ldr	r3, [r5, #0]
 8001d44:	4a21      	ldr	r2, [pc, #132]	; (8001dcc <HAL_RCC_OscConfig+0x334>)
 8001d46:	2480      	movs	r4, #128	; 0x80
 8001d48:	4013      	ands	r3, r2
 8001d4a:	602b      	str	r3, [r5, #0]
 8001d4c:	f7ff f8fa 	bl	8000f44 <HAL_GetTick>
 8001d50:	04a4      	lsls	r4, r4, #18
 8001d52:	0006      	movs	r6, r0
 8001d54:	e004      	b.n	8001d60 <HAL_RCC_OscConfig+0x2c8>
 8001d56:	f7ff f8f5 	bl	8000f44 <HAL_GetTick>
 8001d5a:	1b80      	subs	r0, r0, r6
 8001d5c:	2802      	cmp	r0, #2
 8001d5e:	d827      	bhi.n	8001db0 <HAL_RCC_OscConfig+0x318>
 8001d60:	682b      	ldr	r3, [r5, #0]
 8001d62:	4223      	tst	r3, r4
 8001d64:	d1f7      	bne.n	8001d56 <HAL_RCC_OscConfig+0x2be>
 8001d66:	2000      	movs	r0, #0
 8001d68:	e797      	b.n	8001c9a <HAL_RCC_OscConfig+0x202>
 8001d6a:	21c0      	movs	r1, #192	; 0xc0
 8001d6c:	6842      	ldr	r2, [r0, #4]
 8001d6e:	0249      	lsls	r1, r1, #9
 8001d70:	400a      	ands	r2, r1
 8001d72:	2180      	movs	r1, #128	; 0x80
 8001d74:	0249      	lsls	r1, r1, #9
 8001d76:	428a      	cmp	r2, r1
 8001d78:	d000      	beq.n	8001d7c <HAL_RCC_OscConfig+0x2e4>
 8001d7a:	e6a5      	b.n	8001ac8 <HAL_RCC_OscConfig+0x30>
 8001d7c:	4a0d      	ldr	r2, [pc, #52]	; (8001db4 <HAL_RCC_OscConfig+0x31c>)
 8001d7e:	6812      	ldr	r2, [r2, #0]
 8001d80:	0392      	lsls	r2, r2, #14
 8001d82:	d400      	bmi.n	8001d86 <HAL_RCC_OscConfig+0x2ee>
 8001d84:	e6ca      	b.n	8001b1c <HAL_RCC_OscConfig+0x84>
 8001d86:	6862      	ldr	r2, [r4, #4]
 8001d88:	2a00      	cmp	r2, #0
 8001d8a:	d000      	beq.n	8001d8e <HAL_RCC_OscConfig+0x2f6>
 8001d8c:	e6c6      	b.n	8001b1c <HAL_RCC_OscConfig+0x84>
 8001d8e:	e783      	b.n	8001c98 <HAL_RCC_OscConfig+0x200>
 8001d90:	683b      	ldr	r3, [r7, #0]
 8001d92:	4333      	orrs	r3, r6
 8001d94:	603b      	str	r3, [r7, #0]
 8001d96:	f7ff f8d5 	bl	8000f44 <HAL_GetTick>
 8001d9a:	4680      	mov	r8, r0
 8001d9c:	683b      	ldr	r3, [r7, #0]
 8001d9e:	4233      	tst	r3, r6
 8001da0:	d000      	beq.n	8001da4 <HAL_RCC_OscConfig+0x30c>
 8001da2:	e6ef      	b.n	8001b84 <HAL_RCC_OscConfig+0xec>
 8001da4:	f7ff f8ce 	bl	8000f44 <HAL_GetTick>
 8001da8:	4643      	mov	r3, r8
 8001daa:	1ac0      	subs	r0, r0, r3
 8001dac:	2864      	cmp	r0, #100	; 0x64
 8001dae:	d9f5      	bls.n	8001d9c <HAL_RCC_OscConfig+0x304>
 8001db0:	2003      	movs	r0, #3
 8001db2:	e772      	b.n	8001c9a <HAL_RCC_OscConfig+0x202>
 8001db4:	40021000 	.word	0x40021000
 8001db8:	fffeffff 	.word	0xfffeffff
 8001dbc:	fffbffff 	.word	0xfffbffff
 8001dc0:	40007000 	.word	0x40007000
 8001dc4:	00001388 	.word	0x00001388
 8001dc8:	efffffff 	.word	0xefffffff
 8001dcc:	feffffff 	.word	0xfeffffff
 8001dd0:	4d7d      	ldr	r5, [pc, #500]	; (8001fc8 <HAL_RCC_OscConfig+0x530>)
 8001dd2:	4a7e      	ldr	r2, [pc, #504]	; (8001fcc <HAL_RCC_OscConfig+0x534>)
 8001dd4:	682b      	ldr	r3, [r5, #0]
 8001dd6:	2680      	movs	r6, #128	; 0x80
 8001dd8:	4013      	ands	r3, r2
 8001dda:	602b      	str	r3, [r5, #0]
 8001ddc:	682b      	ldr	r3, [r5, #0]
 8001dde:	4a7c      	ldr	r2, [pc, #496]	; (8001fd0 <HAL_RCC_OscConfig+0x538>)
 8001de0:	02b6      	lsls	r6, r6, #10
 8001de2:	4013      	ands	r3, r2
 8001de4:	602b      	str	r3, [r5, #0]
 8001de6:	f7ff f8ad 	bl	8000f44 <HAL_GetTick>
 8001dea:	0007      	movs	r7, r0
 8001dec:	e004      	b.n	8001df8 <HAL_RCC_OscConfig+0x360>
 8001dee:	f7ff f8a9 	bl	8000f44 <HAL_GetTick>
 8001df2:	1bc0      	subs	r0, r0, r7
 8001df4:	2864      	cmp	r0, #100	; 0x64
 8001df6:	d8db      	bhi.n	8001db0 <HAL_RCC_OscConfig+0x318>
 8001df8:	682b      	ldr	r3, [r5, #0]
 8001dfa:	4233      	tst	r3, r6
 8001dfc:	d1f7      	bne.n	8001dee <HAL_RCC_OscConfig+0x356>
 8001dfe:	6823      	ldr	r3, [r4, #0]
 8001e00:	e68c      	b.n	8001b1c <HAL_RCC_OscConfig+0x84>
 8001e02:	2201      	movs	r2, #1
 8001e04:	4e70      	ldr	r6, [pc, #448]	; (8001fc8 <HAL_RCC_OscConfig+0x530>)
 8001e06:	2702      	movs	r7, #2
 8001e08:	6a33      	ldr	r3, [r6, #32]
 8001e0a:	4393      	bics	r3, r2
 8001e0c:	6233      	str	r3, [r6, #32]
 8001e0e:	6a33      	ldr	r3, [r6, #32]
 8001e10:	3203      	adds	r2, #3
 8001e12:	4393      	bics	r3, r2
 8001e14:	6233      	str	r3, [r6, #32]
 8001e16:	f7ff f895 	bl	8000f44 <HAL_GetTick>
 8001e1a:	4b6e      	ldr	r3, [pc, #440]	; (8001fd4 <HAL_RCC_OscConfig+0x53c>)
 8001e1c:	4681      	mov	r9, r0
 8001e1e:	4698      	mov	r8, r3
 8001e20:	e005      	b.n	8001e2e <HAL_RCC_OscConfig+0x396>
 8001e22:	f7ff f88f 	bl	8000f44 <HAL_GetTick>
 8001e26:	464b      	mov	r3, r9
 8001e28:	1ac0      	subs	r0, r0, r3
 8001e2a:	4540      	cmp	r0, r8
 8001e2c:	d8c0      	bhi.n	8001db0 <HAL_RCC_OscConfig+0x318>
 8001e2e:	6a33      	ldr	r3, [r6, #32]
 8001e30:	421f      	tst	r7, r3
 8001e32:	d1f6      	bne.n	8001e22 <HAL_RCC_OscConfig+0x38a>
 8001e34:	e6fa      	b.n	8001c2c <HAL_RCC_OscConfig+0x194>
 8001e36:	2201      	movs	r2, #1
 8001e38:	4d63      	ldr	r5, [pc, #396]	; (8001fc8 <HAL_RCC_OscConfig+0x530>)
 8001e3a:	2602      	movs	r6, #2
 8001e3c:	682b      	ldr	r3, [r5, #0]
 8001e3e:	4393      	bics	r3, r2
 8001e40:	602b      	str	r3, [r5, #0]
 8001e42:	f7ff f87f 	bl	8000f44 <HAL_GetTick>
 8001e46:	0007      	movs	r7, r0
 8001e48:	e004      	b.n	8001e54 <HAL_RCC_OscConfig+0x3bc>
 8001e4a:	f7ff f87b 	bl	8000f44 <HAL_GetTick>
 8001e4e:	1bc0      	subs	r0, r0, r7
 8001e50:	2802      	cmp	r0, #2
 8001e52:	d8ad      	bhi.n	8001db0 <HAL_RCC_OscConfig+0x318>
 8001e54:	682b      	ldr	r3, [r5, #0]
 8001e56:	421e      	tst	r6, r3
 8001e58:	d1f7      	bne.n	8001e4a <HAL_RCC_OscConfig+0x3b2>
 8001e5a:	6823      	ldr	r3, [r4, #0]
 8001e5c:	e660      	b.n	8001b20 <HAL_RCC_OscConfig+0x88>
 8001e5e:	2204      	movs	r2, #4
 8001e60:	4d59      	ldr	r5, [pc, #356]	; (8001fc8 <HAL_RCC_OscConfig+0x530>)
 8001e62:	2602      	movs	r6, #2
 8001e64:	6b6b      	ldr	r3, [r5, #52]	; 0x34
 8001e66:	4313      	orrs	r3, r2
 8001e68:	636b      	str	r3, [r5, #52]	; 0x34
 8001e6a:	6b6b      	ldr	r3, [r5, #52]	; 0x34
 8001e6c:	3a03      	subs	r2, #3
 8001e6e:	4393      	bics	r3, r2
 8001e70:	636b      	str	r3, [r5, #52]	; 0x34
 8001e72:	f7ff f867 	bl	8000f44 <HAL_GetTick>
 8001e76:	0007      	movs	r7, r0
 8001e78:	e004      	b.n	8001e84 <HAL_RCC_OscConfig+0x3ec>
 8001e7a:	f7ff f863 	bl	8000f44 <HAL_GetTick>
 8001e7e:	1bc0      	subs	r0, r0, r7
 8001e80:	2802      	cmp	r0, #2
 8001e82:	d895      	bhi.n	8001db0 <HAL_RCC_OscConfig+0x318>
 8001e84:	6b6b      	ldr	r3, [r5, #52]	; 0x34
 8001e86:	421e      	tst	r6, r3
 8001e88:	d1f7      	bne.n	8001e7a <HAL_RCC_OscConfig+0x3e2>
 8001e8a:	6823      	ldr	r3, [r4, #0]
 8001e8c:	e6eb      	b.n	8001c66 <HAL_RCC_OscConfig+0x1ce>
 8001e8e:	6b6b      	ldr	r3, [r5, #52]	; 0x34
 8001e90:	4a4e      	ldr	r2, [pc, #312]	; (8001fcc <HAL_RCC_OscConfig+0x534>)
 8001e92:	2680      	movs	r6, #128	; 0x80
 8001e94:	4013      	ands	r3, r2
 8001e96:	636b      	str	r3, [r5, #52]	; 0x34
 8001e98:	f7ff f854 	bl	8000f44 <HAL_GetTick>
 8001e9c:	0276      	lsls	r6, r6, #9
 8001e9e:	0007      	movs	r7, r0
 8001ea0:	e005      	b.n	8001eae <HAL_RCC_OscConfig+0x416>
 8001ea2:	f7ff f84f 	bl	8000f44 <HAL_GetTick>
 8001ea6:	1bc0      	subs	r0, r0, r7
 8001ea8:	2802      	cmp	r0, #2
 8001eaa:	d900      	bls.n	8001eae <HAL_RCC_OscConfig+0x416>
 8001eac:	e780      	b.n	8001db0 <HAL_RCC_OscConfig+0x318>
 8001eae:	6b6b      	ldr	r3, [r5, #52]	; 0x34
 8001eb0:	4233      	tst	r3, r6
 8001eb2:	d1f6      	bne.n	8001ea2 <HAL_RCC_OscConfig+0x40a>
 8001eb4:	e738      	b.n	8001d28 <HAL_RCC_OscConfig+0x290>
 8001eb6:	2280      	movs	r2, #128	; 0x80
 8001eb8:	4b43      	ldr	r3, [pc, #268]	; (8001fc8 <HAL_RCC_OscConfig+0x530>)
 8001eba:	02d2      	lsls	r2, r2, #11
 8001ebc:	6819      	ldr	r1, [r3, #0]
 8001ebe:	430a      	orrs	r2, r1
 8001ec0:	601a      	str	r2, [r3, #0]
 8001ec2:	2280      	movs	r2, #128	; 0x80
 8001ec4:	6819      	ldr	r1, [r3, #0]
 8001ec6:	0252      	lsls	r2, r2, #9
 8001ec8:	430a      	orrs	r2, r1
 8001eca:	601a      	str	r2, [r3, #0]
 8001ecc:	e615      	b.n	8001afa <HAL_RCC_OscConfig+0x62>
 8001ece:	682b      	ldr	r3, [r5, #0]
 8001ed0:	4a41      	ldr	r2, [pc, #260]	; (8001fd8 <HAL_RCC_OscConfig+0x540>)
 8001ed2:	2680      	movs	r6, #128	; 0x80
 8001ed4:	4013      	ands	r3, r2
 8001ed6:	602b      	str	r3, [r5, #0]
 8001ed8:	f7ff f834 	bl	8000f44 <HAL_GetTick>
 8001edc:	04b6      	lsls	r6, r6, #18
 8001ede:	0007      	movs	r7, r0
 8001ee0:	e005      	b.n	8001eee <HAL_RCC_OscConfig+0x456>
 8001ee2:	f7ff f82f 	bl	8000f44 <HAL_GetTick>
 8001ee6:	1bc0      	subs	r0, r0, r7
 8001ee8:	2802      	cmp	r0, #2
 8001eea:	d900      	bls.n	8001eee <HAL_RCC_OscConfig+0x456>
 8001eec:	e760      	b.n	8001db0 <HAL_RCC_OscConfig+0x318>
 8001eee:	682b      	ldr	r3, [r5, #0]
 8001ef0:	4233      	tst	r3, r6
 8001ef2:	d1f6      	bne.n	8001ee2 <HAL_RCC_OscConfig+0x44a>
 8001ef4:	220f      	movs	r2, #15
 8001ef6:	6aeb      	ldr	r3, [r5, #44]	; 0x2c
 8001ef8:	4393      	bics	r3, r2
 8001efa:	6b22      	ldr	r2, [r4, #48]	; 0x30
 8001efc:	4313      	orrs	r3, r2
 8001efe:	62eb      	str	r3, [r5, #44]	; 0x2c
 8001f00:	6aa1      	ldr	r1, [r4, #40]	; 0x28
 8001f02:	6ae3      	ldr	r3, [r4, #44]	; 0x2c
 8001f04:	686a      	ldr	r2, [r5, #4]
 8001f06:	430b      	orrs	r3, r1
 8001f08:	4934      	ldr	r1, [pc, #208]	; (8001fdc <HAL_RCC_OscConfig+0x544>)
 8001f0a:	2480      	movs	r4, #128	; 0x80
 8001f0c:	400a      	ands	r2, r1
 8001f0e:	4313      	orrs	r3, r2
 8001f10:	606b      	str	r3, [r5, #4]
 8001f12:	2380      	movs	r3, #128	; 0x80
 8001f14:	682a      	ldr	r2, [r5, #0]
 8001f16:	045b      	lsls	r3, r3, #17
 8001f18:	4313      	orrs	r3, r2
 8001f1a:	602b      	str	r3, [r5, #0]
 8001f1c:	f7ff f812 	bl	8000f44 <HAL_GetTick>
 8001f20:	4d29      	ldr	r5, [pc, #164]	; (8001fc8 <HAL_RCC_OscConfig+0x530>)
 8001f22:	0006      	movs	r6, r0
 8001f24:	04a4      	lsls	r4, r4, #18
 8001f26:	e005      	b.n	8001f34 <HAL_RCC_OscConfig+0x49c>
 8001f28:	f7ff f80c 	bl	8000f44 <HAL_GetTick>
 8001f2c:	1b80      	subs	r0, r0, r6
 8001f2e:	2802      	cmp	r0, #2
 8001f30:	d900      	bls.n	8001f34 <HAL_RCC_OscConfig+0x49c>
 8001f32:	e73d      	b.n	8001db0 <HAL_RCC_OscConfig+0x318>
 8001f34:	682b      	ldr	r3, [r5, #0]
 8001f36:	4223      	tst	r3, r4
 8001f38:	d0f6      	beq.n	8001f28 <HAL_RCC_OscConfig+0x490>
 8001f3a:	2000      	movs	r0, #0
 8001f3c:	e6ad      	b.n	8001c9a <HAL_RCC_OscConfig+0x202>
 8001f3e:	2104      	movs	r1, #4
 8001f40:	4b21      	ldr	r3, [pc, #132]	; (8001fc8 <HAL_RCC_OscConfig+0x530>)
 8001f42:	6a1a      	ldr	r2, [r3, #32]
 8001f44:	430a      	orrs	r2, r1
 8001f46:	621a      	str	r2, [r3, #32]
 8001f48:	6a1a      	ldr	r2, [r3, #32]
 8001f4a:	3903      	subs	r1, #3
 8001f4c:	430a      	orrs	r2, r1
 8001f4e:	621a      	str	r2, [r3, #32]
 8001f50:	e65a      	b.n	8001c08 <HAL_RCC_OscConfig+0x170>
 8001f52:	2b01      	cmp	r3, #1
 8001f54:	d100      	bne.n	8001f58 <HAL_RCC_OscConfig+0x4c0>
 8001f56:	e69f      	b.n	8001c98 <HAL_RCC_OscConfig+0x200>
 8001f58:	22c0      	movs	r2, #192	; 0xc0
 8001f5a:	686b      	ldr	r3, [r5, #4]
 8001f5c:	6aa0      	ldr	r0, [r4, #40]	; 0x28
 8001f5e:	0252      	lsls	r2, r2, #9
 8001f60:	6ae9      	ldr	r1, [r5, #44]	; 0x2c
 8001f62:	401a      	ands	r2, r3
 8001f64:	4282      	cmp	r2, r0
 8001f66:	d000      	beq.n	8001f6a <HAL_RCC_OscConfig+0x4d2>
 8001f68:	e696      	b.n	8001c98 <HAL_RCC_OscConfig+0x200>
 8001f6a:	220f      	movs	r2, #15
 8001f6c:	400a      	ands	r2, r1
 8001f6e:	6b21      	ldr	r1, [r4, #48]	; 0x30
 8001f70:	428a      	cmp	r2, r1
 8001f72:	d000      	beq.n	8001f76 <HAL_RCC_OscConfig+0x4de>
 8001f74:	e690      	b.n	8001c98 <HAL_RCC_OscConfig+0x200>
 8001f76:	20f0      	movs	r0, #240	; 0xf0
 8001f78:	0380      	lsls	r0, r0, #14
 8001f7a:	4003      	ands	r3, r0
 8001f7c:	6ae0      	ldr	r0, [r4, #44]	; 0x2c
 8001f7e:	1a18      	subs	r0, r3, r0
 8001f80:	1e43      	subs	r3, r0, #1
 8001f82:	4198      	sbcs	r0, r3
 8001f84:	b2c0      	uxtb	r0, r0
 8001f86:	e688      	b.n	8001c9a <HAL_RCC_OscConfig+0x202>
 8001f88:	2104      	movs	r1, #4
 8001f8a:	4d0f      	ldr	r5, [pc, #60]	; (8001fc8 <HAL_RCC_OscConfig+0x530>)
 8001f8c:	2602      	movs	r6, #2
 8001f8e:	6b6b      	ldr	r3, [r5, #52]	; 0x34
 8001f90:	430b      	orrs	r3, r1
 8001f92:	636b      	str	r3, [r5, #52]	; 0x34
 8001f94:	6b6b      	ldr	r3, [r5, #52]	; 0x34
 8001f96:	431a      	orrs	r2, r3
 8001f98:	636a      	str	r2, [r5, #52]	; 0x34
 8001f9a:	f7fe ffd3 	bl	8000f44 <HAL_GetTick>
 8001f9e:	0007      	movs	r7, r0
 8001fa0:	e005      	b.n	8001fae <HAL_RCC_OscConfig+0x516>
 8001fa2:	f7fe ffcf 	bl	8000f44 <HAL_GetTick>
 8001fa6:	1bc0      	subs	r0, r0, r7
 8001fa8:	2802      	cmp	r0, #2
 8001faa:	d900      	bls.n	8001fae <HAL_RCC_OscConfig+0x516>
 8001fac:	e700      	b.n	8001db0 <HAL_RCC_OscConfig+0x318>
 8001fae:	6b6b      	ldr	r3, [r5, #52]	; 0x34
 8001fb0:	421e      	tst	r6, r3
 8001fb2:	d0f6      	beq.n	8001fa2 <HAL_RCC_OscConfig+0x50a>
 8001fb4:	21f8      	movs	r1, #248	; 0xf8
 8001fb6:	6b6a      	ldr	r2, [r5, #52]	; 0x34
 8001fb8:	69a3      	ldr	r3, [r4, #24]
 8001fba:	438a      	bics	r2, r1
 8001fbc:	00db      	lsls	r3, r3, #3
 8001fbe:	4313      	orrs	r3, r2
 8001fc0:	636b      	str	r3, [r5, #52]	; 0x34
 8001fc2:	6823      	ldr	r3, [r4, #0]
 8001fc4:	e64f      	b.n	8001c66 <HAL_RCC_OscConfig+0x1ce>
 8001fc6:	46c0      	nop			; (mov r8, r8)
 8001fc8:	40021000 	.word	0x40021000
 8001fcc:	fffeffff 	.word	0xfffeffff
 8001fd0:	fffbffff 	.word	0xfffbffff
 8001fd4:	00001388 	.word	0x00001388
 8001fd8:	feffffff 	.word	0xfeffffff
 8001fdc:	ffc27fff 	.word	0xffc27fff

08001fe0 <HAL_RCC_ClockConfig>:
 8001fe0:	b5f0      	push	{r4, r5, r6, r7, lr}
 8001fe2:	46ce      	mov	lr, r9
 8001fe4:	4647      	mov	r7, r8
 8001fe6:	b580      	push	{r7, lr}
 8001fe8:	0004      	movs	r4, r0
 8001fea:	b089      	sub	sp, #36	; 0x24
 8001fec:	000d      	movs	r5, r1
 8001fee:	2800      	cmp	r0, #0
 8001ff0:	d00d      	beq.n	800200e <HAL_RCC_ClockConfig+0x2e>
 8001ff2:	2301      	movs	r3, #1
 8001ff4:	495b      	ldr	r1, [pc, #364]	; (8002164 <HAL_RCC_ClockConfig+0x184>)
 8001ff6:	680a      	ldr	r2, [r1, #0]
 8001ff8:	401a      	ands	r2, r3
 8001ffa:	42aa      	cmp	r2, r5
 8001ffc:	d20d      	bcs.n	800201a <HAL_RCC_ClockConfig+0x3a>
 8001ffe:	680a      	ldr	r2, [r1, #0]
 8002000:	439a      	bics	r2, r3
 8002002:	432a      	orrs	r2, r5
 8002004:	600a      	str	r2, [r1, #0]
 8002006:	680a      	ldr	r2, [r1, #0]
 8002008:	4013      	ands	r3, r2
 800200a:	42ab      	cmp	r3, r5
 800200c:	d005      	beq.n	800201a <HAL_RCC_ClockConfig+0x3a>
 800200e:	2001      	movs	r0, #1
 8002010:	b009      	add	sp, #36	; 0x24
 8002012:	bc0c      	pop	{r2, r3}
 8002014:	4690      	mov	r8, r2
 8002016:	4699      	mov	r9, r3
 8002018:	bdf0      	pop	{r4, r5, r6, r7, pc}
 800201a:	6823      	ldr	r3, [r4, #0]
 800201c:	079a      	lsls	r2, r3, #30
 800201e:	d50e      	bpl.n	800203e <HAL_RCC_ClockConfig+0x5e>
 8002020:	075a      	lsls	r2, r3, #29
 8002022:	d505      	bpl.n	8002030 <HAL_RCC_ClockConfig+0x50>
 8002024:	22e0      	movs	r2, #224	; 0xe0
 8002026:	4950      	ldr	r1, [pc, #320]	; (8002168 <HAL_RCC_ClockConfig+0x188>)
 8002028:	00d2      	lsls	r2, r2, #3
 800202a:	6848      	ldr	r0, [r1, #4]
 800202c:	4302      	orrs	r2, r0
 800202e:	604a      	str	r2, [r1, #4]
 8002030:	20f0      	movs	r0, #240	; 0xf0
 8002032:	494d      	ldr	r1, [pc, #308]	; (8002168 <HAL_RCC_ClockConfig+0x188>)
 8002034:	684a      	ldr	r2, [r1, #4]
 8002036:	4382      	bics	r2, r0
 8002038:	68a0      	ldr	r0, [r4, #8]
 800203a:	4302      	orrs	r2, r0
 800203c:	604a      	str	r2, [r1, #4]
 800203e:	07db      	lsls	r3, r3, #31
 8002040:	d524      	bpl.n	800208c <HAL_RCC_ClockConfig+0xac>
 8002042:	6863      	ldr	r3, [r4, #4]
 8002044:	4a48      	ldr	r2, [pc, #288]	; (8002168 <HAL_RCC_ClockConfig+0x188>)
 8002046:	2b01      	cmp	r3, #1
 8002048:	d062      	beq.n	8002110 <HAL_RCC_ClockConfig+0x130>
 800204a:	2b02      	cmp	r3, #2
 800204c:	d07b      	beq.n	8002146 <HAL_RCC_ClockConfig+0x166>
 800204e:	2b03      	cmp	r3, #3
 8002050:	d100      	bne.n	8002054 <HAL_RCC_ClockConfig+0x74>
 8002052:	e081      	b.n	8002158 <HAL_RCC_ClockConfig+0x178>
 8002054:	6812      	ldr	r2, [r2, #0]
 8002056:	0792      	lsls	r2, r2, #30
 8002058:	d5d9      	bpl.n	800200e <HAL_RCC_ClockConfig+0x2e>
 800205a:	2103      	movs	r1, #3
 800205c:	4e42      	ldr	r6, [pc, #264]	; (8002168 <HAL_RCC_ClockConfig+0x188>)
 800205e:	270c      	movs	r7, #12
 8002060:	6872      	ldr	r2, [r6, #4]
 8002062:	438a      	bics	r2, r1
 8002064:	4313      	orrs	r3, r2
 8002066:	6073      	str	r3, [r6, #4]
 8002068:	f7fe ff6c 	bl	8000f44 <HAL_GetTick>
 800206c:	4b3f      	ldr	r3, [pc, #252]	; (800216c <HAL_RCC_ClockConfig+0x18c>)
 800206e:	4681      	mov	r9, r0
 8002070:	4698      	mov	r8, r3
 8002072:	e005      	b.n	8002080 <HAL_RCC_ClockConfig+0xa0>
 8002074:	f7fe ff66 	bl	8000f44 <HAL_GetTick>
 8002078:	464b      	mov	r3, r9
 800207a:	1ac0      	subs	r0, r0, r3
 800207c:	4540      	cmp	r0, r8
 800207e:	d860      	bhi.n	8002142 <HAL_RCC_ClockConfig+0x162>
 8002080:	6872      	ldr	r2, [r6, #4]
 8002082:	6863      	ldr	r3, [r4, #4]
 8002084:	403a      	ands	r2, r7
 8002086:	009b      	lsls	r3, r3, #2
 8002088:	429a      	cmp	r2, r3
 800208a:	d1f3      	bne.n	8002074 <HAL_RCC_ClockConfig+0x94>
 800208c:	2101      	movs	r1, #1
 800208e:	4a35      	ldr	r2, [pc, #212]	; (8002164 <HAL_RCC_ClockConfig+0x184>)
 8002090:	6813      	ldr	r3, [r2, #0]
 8002092:	400b      	ands	r3, r1
 8002094:	42ab      	cmp	r3, r5
 8002096:	d905      	bls.n	80020a4 <HAL_RCC_ClockConfig+0xc4>
 8002098:	6813      	ldr	r3, [r2, #0]
 800209a:	438b      	bics	r3, r1
 800209c:	6013      	str	r3, [r2, #0]
 800209e:	6813      	ldr	r3, [r2, #0]
 80020a0:	4219      	tst	r1, r3
 80020a2:	d1b4      	bne.n	800200e <HAL_RCC_ClockConfig+0x2e>
 80020a4:	6823      	ldr	r3, [r4, #0]
 80020a6:	075b      	lsls	r3, r3, #29
 80020a8:	d506      	bpl.n	80020b8 <HAL_RCC_ClockConfig+0xd8>
 80020aa:	4a2f      	ldr	r2, [pc, #188]	; (8002168 <HAL_RCC_ClockConfig+0x188>)
 80020ac:	4930      	ldr	r1, [pc, #192]	; (8002170 <HAL_RCC_ClockConfig+0x190>)
 80020ae:	6853      	ldr	r3, [r2, #4]
 80020b0:	400b      	ands	r3, r1
 80020b2:	68e1      	ldr	r1, [r4, #12]
 80020b4:	430b      	orrs	r3, r1
 80020b6:	6053      	str	r3, [r2, #4]
 80020b8:	4669      	mov	r1, sp
 80020ba:	4b2e      	ldr	r3, [pc, #184]	; (8002174 <HAL_RCC_ClockConfig+0x194>)
 80020bc:	000a      	movs	r2, r1
 80020be:	0018      	movs	r0, r3
 80020c0:	c870      	ldmia	r0!, {r4, r5, r6}
 80020c2:	c270      	stmia	r2!, {r4, r5, r6}
 80020c4:	6800      	ldr	r0, [r0, #0]
 80020c6:	3310      	adds	r3, #16
 80020c8:	6010      	str	r0, [r2, #0]
 80020ca:	aa04      	add	r2, sp, #16
 80020cc:	0010      	movs	r0, r2
 80020ce:	cb70      	ldmia	r3!, {r4, r5, r6}
 80020d0:	c070      	stmia	r0!, {r4, r5, r6}
 80020d2:	681b      	ldr	r3, [r3, #0]
 80020d4:	4d24      	ldr	r5, [pc, #144]	; (8002168 <HAL_RCC_ClockConfig+0x188>)
 80020d6:	6003      	str	r3, [r0, #0]
 80020d8:	200c      	movs	r0, #12
 80020da:	686b      	ldr	r3, [r5, #4]
 80020dc:	4018      	ands	r0, r3
 80020de:	2808      	cmp	r0, #8
 80020e0:	d01a      	beq.n	8002118 <HAL_RCC_ClockConfig+0x138>
 80020e2:	380c      	subs	r0, #12
 80020e4:	4243      	negs	r3, r0
 80020e6:	4158      	adcs	r0, r3
 80020e8:	4b23      	ldr	r3, [pc, #140]	; (8002178 <HAL_RCC_ClockConfig+0x198>)
 80020ea:	4240      	negs	r0, r0
 80020ec:	4018      	ands	r0, r3
 80020ee:	4b23      	ldr	r3, [pc, #140]	; (800217c <HAL_RCC_ClockConfig+0x19c>)
 80020f0:	469c      	mov	ip, r3
 80020f2:	4460      	add	r0, ip
 80020f4:	4b1c      	ldr	r3, [pc, #112]	; (8002168 <HAL_RCC_ClockConfig+0x188>)
 80020f6:	4a22      	ldr	r2, [pc, #136]	; (8002180 <HAL_RCC_ClockConfig+0x1a0>)
 80020f8:	685b      	ldr	r3, [r3, #4]
 80020fa:	061b      	lsls	r3, r3, #24
 80020fc:	0f1b      	lsrs	r3, r3, #28
 80020fe:	5cd3      	ldrb	r3, [r2, r3]
 8002100:	40d8      	lsrs	r0, r3
 8002102:	4b20      	ldr	r3, [pc, #128]	; (8002184 <HAL_RCC_ClockConfig+0x1a4>)
 8002104:	6018      	str	r0, [r3, #0]
 8002106:	2000      	movs	r0, #0
 8002108:	f7fe feda 	bl	8000ec0 <HAL_InitTick>
 800210c:	2000      	movs	r0, #0
 800210e:	e77f      	b.n	8002010 <HAL_RCC_ClockConfig+0x30>
 8002110:	6812      	ldr	r2, [r2, #0]
 8002112:	0392      	lsls	r2, r2, #14
 8002114:	d4a1      	bmi.n	800205a <HAL_RCC_ClockConfig+0x7a>
 8002116:	e77a      	b.n	800200e <HAL_RCC_ClockConfig+0x2e>
 8002118:	200f      	movs	r0, #15
 800211a:	0c9c      	lsrs	r4, r3, #18
 800211c:	4004      	ands	r4, r0
 800211e:	5d0c      	ldrb	r4, [r1, r4]
 8002120:	6ae9      	ldr	r1, [r5, #44]	; 0x2c
 8002122:	4008      	ands	r0, r1
 8002124:	5c11      	ldrb	r1, [r2, r0]
 8002126:	22c0      	movs	r2, #192	; 0xc0
 8002128:	2080      	movs	r0, #128	; 0x80
 800212a:	0252      	lsls	r2, r2, #9
 800212c:	4013      	ands	r3, r2
 800212e:	0240      	lsls	r0, r0, #9
 8002130:	4283      	cmp	r3, r0
 8002132:	d001      	beq.n	8002138 <HAL_RCC_ClockConfig+0x158>
 8002134:	4293      	cmp	r3, r2
 8002136:	d00a      	beq.n	800214e <HAL_RCC_ClockConfig+0x16e>
 8002138:	4810      	ldr	r0, [pc, #64]	; (800217c <HAL_RCC_ClockConfig+0x19c>)
 800213a:	f7fd ffe5 	bl	8000108 <__udivsi3>
 800213e:	4360      	muls	r0, r4
 8002140:	e7d8      	b.n	80020f4 <HAL_RCC_ClockConfig+0x114>
 8002142:	2003      	movs	r0, #3
 8002144:	e764      	b.n	8002010 <HAL_RCC_ClockConfig+0x30>
 8002146:	6812      	ldr	r2, [r2, #0]
 8002148:	0192      	lsls	r2, r2, #6
 800214a:	d486      	bmi.n	800205a <HAL_RCC_ClockConfig+0x7a>
 800214c:	e75f      	b.n	800200e <HAL_RCC_ClockConfig+0x2e>
 800214e:	480e      	ldr	r0, [pc, #56]	; (8002188 <HAL_RCC_ClockConfig+0x1a8>)
 8002150:	f7fd ffda 	bl	8000108 <__udivsi3>
 8002154:	4360      	muls	r0, r4
 8002156:	e7cd      	b.n	80020f4 <HAL_RCC_ClockConfig+0x114>
 8002158:	6b52      	ldr	r2, [r2, #52]	; 0x34
 800215a:	03d2      	lsls	r2, r2, #15
 800215c:	d500      	bpl.n	8002160 <HAL_RCC_ClockConfig+0x180>
 800215e:	e77c      	b.n	800205a <HAL_RCC_ClockConfig+0x7a>
 8002160:	e755      	b.n	800200e <HAL_RCC_ClockConfig+0x2e>
 8002162:	46c0      	nop			; (mov r8, r8)
 8002164:	40022000 	.word	0x40022000
 8002168:	40021000 	.word	0x40021000
 800216c:	00001388 	.word	0x00001388
 8002170:	fffff8ff 	.word	0xfffff8ff
 8002174:	08002b18 	.word	0x08002b18
 8002178:	02625a00 	.word	0x02625a00
 800217c:	007a1200 	.word	0x007a1200
 8002180:	08002b38 	.word	0x08002b38
 8002184:	20000000 	.word	0x20000000
 8002188:	02dc6c00 	.word	0x02dc6c00

0800218c <HAL_TIM_Base_Init>:
 800218c:	b570      	push	{r4, r5, r6, lr}
 800218e:	1e04      	subs	r4, r0, #0
 8002190:	d044      	beq.n	800221c <HAL_TIM_Base_Init+0x90>
 8002192:	233d      	movs	r3, #61	; 0x3d
 8002194:	5cc3      	ldrb	r3, [r0, r3]
 8002196:	b2db      	uxtb	r3, r3
 8002198:	2b00      	cmp	r3, #0
 800219a:	d021      	beq.n	80021e0 <HAL_TIM_Base_Init+0x54>
 800219c:	233d      	movs	r3, #61	; 0x3d
 800219e:	2202      	movs	r2, #2
 80021a0:	4e29      	ldr	r6, [pc, #164]	; (8002248 <HAL_TIM_Base_Init+0xbc>)
 80021a2:	54e2      	strb	r2, [r4, r3]
 80021a4:	6822      	ldr	r2, [r4, #0]
 80021a6:	69a5      	ldr	r5, [r4, #24]
 80021a8:	6813      	ldr	r3, [r2, #0]
 80021aa:	68e0      	ldr	r0, [r4, #12]
 80021ac:	6861      	ldr	r1, [r4, #4]
 80021ae:	42b2      	cmp	r2, r6
 80021b0:	d036      	beq.n	8002220 <HAL_TIM_Base_Init+0x94>
 80021b2:	2680      	movs	r6, #128	; 0x80
 80021b4:	05f6      	lsls	r6, r6, #23
 80021b6:	42b2      	cmp	r2, r6
 80021b8:	d017      	beq.n	80021ea <HAL_TIM_Base_Init+0x5e>
 80021ba:	4e24      	ldr	r6, [pc, #144]	; (800224c <HAL_TIM_Base_Init+0xc0>)
 80021bc:	42b2      	cmp	r2, r6
 80021be:	d014      	beq.n	80021ea <HAL_TIM_Base_Init+0x5e>
 80021c0:	4e23      	ldr	r6, [pc, #140]	; (8002250 <HAL_TIM_Base_Init+0xc4>)
 80021c2:	42b2      	cmp	r2, r6
 80021c4:	d03b      	beq.n	800223e <HAL_TIM_Base_Init+0xb2>
 80021c6:	4e23      	ldr	r6, [pc, #140]	; (8002254 <HAL_TIM_Base_Init+0xc8>)
 80021c8:	42b2      	cmp	r2, r6
 80021ca:	d02d      	beq.n	8002228 <HAL_TIM_Base_Init+0x9c>
 80021cc:	4e22      	ldr	r6, [pc, #136]	; (8002258 <HAL_TIM_Base_Init+0xcc>)
 80021ce:	42b2      	cmp	r2, r6
 80021d0:	d02a      	beq.n	8002228 <HAL_TIM_Base_Init+0x9c>
 80021d2:	2680      	movs	r6, #128	; 0x80
 80021d4:	43b3      	bics	r3, r6
 80021d6:	432b      	orrs	r3, r5
 80021d8:	6013      	str	r3, [r2, #0]
 80021da:	62d0      	str	r0, [r2, #44]	; 0x2c
 80021dc:	6291      	str	r1, [r2, #40]	; 0x28
 80021de:	e017      	b.n	8002210 <HAL_TIM_Base_Init+0x84>
 80021e0:	223c      	movs	r2, #60	; 0x3c
 80021e2:	5483      	strb	r3, [r0, r2]
 80021e4:	f7fe fd8e 	bl	8000d04 <HAL_TIM_Base_MspInit>
 80021e8:	e7d8      	b.n	800219c <HAL_TIM_Base_Init+0x10>
 80021ea:	2670      	movs	r6, #112	; 0x70
 80021ec:	43b3      	bics	r3, r6
 80021ee:	68a6      	ldr	r6, [r4, #8]
 80021f0:	4333      	orrs	r3, r6
 80021f2:	4e1a      	ldr	r6, [pc, #104]	; (800225c <HAL_TIM_Base_Init+0xd0>)
 80021f4:	4033      	ands	r3, r6
 80021f6:	6926      	ldr	r6, [r4, #16]
 80021f8:	4333      	orrs	r3, r6
 80021fa:	2680      	movs	r6, #128	; 0x80
 80021fc:	43b3      	bics	r3, r6
 80021fe:	432b      	orrs	r3, r5
 8002200:	6013      	str	r3, [r2, #0]
 8002202:	4b15      	ldr	r3, [pc, #84]	; (8002258 <HAL_TIM_Base_Init+0xcc>)
 8002204:	62d0      	str	r0, [r2, #44]	; 0x2c
 8002206:	6291      	str	r1, [r2, #40]	; 0x28
 8002208:	429a      	cmp	r2, r3
 800220a:	d101      	bne.n	8002210 <HAL_TIM_Base_Init+0x84>
 800220c:	6963      	ldr	r3, [r4, #20]
 800220e:	6313      	str	r3, [r2, #48]	; 0x30
 8002210:	2301      	movs	r3, #1
 8002212:	6153      	str	r3, [r2, #20]
 8002214:	223d      	movs	r2, #61	; 0x3d
 8002216:	2000      	movs	r0, #0
 8002218:	54a3      	strb	r3, [r4, r2]
 800221a:	bd70      	pop	{r4, r5, r6, pc}
 800221c:	2001      	movs	r0, #1
 800221e:	e7fc      	b.n	800221a <HAL_TIM_Base_Init+0x8e>
 8002220:	2670      	movs	r6, #112	; 0x70
 8002222:	43b3      	bics	r3, r6
 8002224:	68a6      	ldr	r6, [r4, #8]
 8002226:	4333      	orrs	r3, r6
 8002228:	4e0c      	ldr	r6, [pc, #48]	; (800225c <HAL_TIM_Base_Init+0xd0>)
 800222a:	4033      	ands	r3, r6
 800222c:	6926      	ldr	r6, [r4, #16]
 800222e:	4333      	orrs	r3, r6
 8002230:	2680      	movs	r6, #128	; 0x80
 8002232:	43b3      	bics	r3, r6
 8002234:	432b      	orrs	r3, r5
 8002236:	6013      	str	r3, [r2, #0]
 8002238:	62d0      	str	r0, [r2, #44]	; 0x2c
 800223a:	6291      	str	r1, [r2, #40]	; 0x28
 800223c:	e7e6      	b.n	800220c <HAL_TIM_Base_Init+0x80>
 800223e:	4e07      	ldr	r6, [pc, #28]	; (800225c <HAL_TIM_Base_Init+0xd0>)
 8002240:	4033      	ands	r3, r6
 8002242:	6926      	ldr	r6, [r4, #16]
 8002244:	4333      	orrs	r3, r6
 8002246:	e7c4      	b.n	80021d2 <HAL_TIM_Base_Init+0x46>
 8002248:	40012c00 	.word	0x40012c00
 800224c:	40000400 	.word	0x40000400
 8002250:	40002000 	.word	0x40002000
 8002254:	40014400 	.word	0x40014400
 8002258:	40014800 	.word	0x40014800
 800225c:	fffffcff 	.word	0xfffffcff

08002260 <HAL_TIM_Base_Start_IT>:
 8002260:	2101      	movs	r1, #1
 8002262:	6803      	ldr	r3, [r0, #0]
 8002264:	68da      	ldr	r2, [r3, #12]
 8002266:	430a      	orrs	r2, r1
 8002268:	60da      	str	r2, [r3, #12]
 800226a:	2207      	movs	r2, #7
 800226c:	6898      	ldr	r0, [r3, #8]
 800226e:	4002      	ands	r2, r0
 8002270:	2a06      	cmp	r2, #6
 8002272:	d002      	beq.n	800227a <HAL_TIM_Base_Start_IT+0x1a>
 8002274:	681a      	ldr	r2, [r3, #0]
 8002276:	430a      	orrs	r2, r1
 8002278:	601a      	str	r2, [r3, #0]
 800227a:	2000      	movs	r0, #0
 800227c:	4770      	bx	lr
 800227e:	46c0      	nop			; (mov r8, r8)

08002280 <HAL_TIM_PWM_MspInit>:
 8002280:	4770      	bx	lr
 8002282:	46c0      	nop			; (mov r8, r8)

08002284 <HAL_TIM_PWM_Init>:
 8002284:	b570      	push	{r4, r5, r6, lr}
 8002286:	1e04      	subs	r4, r0, #0
 8002288:	d044      	beq.n	8002314 <HAL_TIM_PWM_Init+0x90>
 800228a:	233d      	movs	r3, #61	; 0x3d
 800228c:	5cc3      	ldrb	r3, [r0, r3]
 800228e:	b2db      	uxtb	r3, r3
 8002290:	2b00      	cmp	r3, #0
 8002292:	d021      	beq.n	80022d8 <HAL_TIM_PWM_Init+0x54>
 8002294:	233d      	movs	r3, #61	; 0x3d
 8002296:	2202      	movs	r2, #2
 8002298:	4e29      	ldr	r6, [pc, #164]	; (8002340 <HAL_TIM_PWM_Init+0xbc>)
 800229a:	54e2      	strb	r2, [r4, r3]
 800229c:	6822      	ldr	r2, [r4, #0]
 800229e:	69a5      	ldr	r5, [r4, #24]
 80022a0:	6813      	ldr	r3, [r2, #0]
 80022a2:	68e0      	ldr	r0, [r4, #12]
 80022a4:	6861      	ldr	r1, [r4, #4]
 80022a6:	42b2      	cmp	r2, r6
 80022a8:	d036      	beq.n	8002318 <HAL_TIM_PWM_Init+0x94>
 80022aa:	2680      	movs	r6, #128	; 0x80
 80022ac:	05f6      	lsls	r6, r6, #23
 80022ae:	42b2      	cmp	r2, r6
 80022b0:	d017      	beq.n	80022e2 <HAL_TIM_PWM_Init+0x5e>
 80022b2:	4e24      	ldr	r6, [pc, #144]	; (8002344 <HAL_TIM_PWM_Init+0xc0>)
 80022b4:	42b2      	cmp	r2, r6
 80022b6:	d014      	beq.n	80022e2 <HAL_TIM_PWM_Init+0x5e>
 80022b8:	4e23      	ldr	r6, [pc, #140]	; (8002348 <HAL_TIM_PWM_Init+0xc4>)
 80022ba:	42b2      	cmp	r2, r6
 80022bc:	d03b      	beq.n	8002336 <HAL_TIM_PWM_Init+0xb2>
 80022be:	4e23      	ldr	r6, [pc, #140]	; (800234c <HAL_TIM_PWM_Init+0xc8>)
 80022c0:	42b2      	cmp	r2, r6
 80022c2:	d02d      	beq.n	8002320 <HAL_TIM_PWM_Init+0x9c>
 80022c4:	4e22      	ldr	r6, [pc, #136]	; (8002350 <HAL_TIM_PWM_Init+0xcc>)
 80022c6:	42b2      	cmp	r2, r6
 80022c8:	d02a      	beq.n	8002320 <HAL_TIM_PWM_Init+0x9c>
 80022ca:	2680      	movs	r6, #128	; 0x80
 80022cc:	43b3      	bics	r3, r6
 80022ce:	432b      	orrs	r3, r5
 80022d0:	6013      	str	r3, [r2, #0]
 80022d2:	62d0      	str	r0, [r2, #44]	; 0x2c
 80022d4:	6291      	str	r1, [r2, #40]	; 0x28
 80022d6:	e017      	b.n	8002308 <HAL_TIM_PWM_Init+0x84>
 80022d8:	223c      	movs	r2, #60	; 0x3c
 80022da:	5483      	strb	r3, [r0, r2]
 80022dc:	f7ff ffd0 	bl	8002280 <HAL_TIM_PWM_MspInit>
 80022e0:	e7d8      	b.n	8002294 <HAL_TIM_PWM_Init+0x10>
 80022e2:	2670      	movs	r6, #112	; 0x70
 80022e4:	43b3      	bics	r3, r6
 80022e6:	68a6      	ldr	r6, [r4, #8]
 80022e8:	4333      	orrs	r3, r6
 80022ea:	4e1a      	ldr	r6, [pc, #104]	; (8002354 <HAL_TIM_PWM_Init+0xd0>)
 80022ec:	4033      	ands	r3, r6
 80022ee:	6926      	ldr	r6, [r4, #16]
 80022f0:	4333      	orrs	r3, r6
 80022f2:	2680      	movs	r6, #128	; 0x80
 80022f4:	43b3      	bics	r3, r6
 80022f6:	432b      	orrs	r3, r5
 80022f8:	6013      	str	r3, [r2, #0]
 80022fa:	4b15      	ldr	r3, [pc, #84]	; (8002350 <HAL_TIM_PWM_Init+0xcc>)
 80022fc:	62d0      	str	r0, [r2, #44]	; 0x2c
 80022fe:	6291      	str	r1, [r2, #40]	; 0x28
 8002300:	429a      	cmp	r2, r3
 8002302:	d101      	bne.n	8002308 <HAL_TIM_PWM_Init+0x84>
 8002304:	6963      	ldr	r3, [r4, #20]
 8002306:	6313      	str	r3, [r2, #48]	; 0x30
 8002308:	2301      	movs	r3, #1
 800230a:	6153      	str	r3, [r2, #20]
 800230c:	223d      	movs	r2, #61	; 0x3d
 800230e:	2000      	movs	r0, #0
 8002310:	54a3      	strb	r3, [r4, r2]
 8002312:	bd70      	pop	{r4, r5, r6, pc}
 8002314:	2001      	movs	r0, #1
 8002316:	e7fc      	b.n	8002312 <HAL_TIM_PWM_Init+0x8e>
 8002318:	2670      	movs	r6, #112	; 0x70
 800231a:	43b3      	bics	r3, r6
 800231c:	68a6      	ldr	r6, [r4, #8]
 800231e:	4333      	orrs	r3, r6
 8002320:	4e0c      	ldr	r6, [pc, #48]	; (8002354 <HAL_TIM_PWM_Init+0xd0>)
 8002322:	4033      	ands	r3, r6
 8002324:	6926      	ldr	r6, [r4, #16]
 8002326:	4333      	orrs	r3, r6
 8002328:	2680      	movs	r6, #128	; 0x80
 800232a:	43b3      	bics	r3, r6
 800232c:	432b      	orrs	r3, r5
 800232e:	6013      	str	r3, [r2, #0]
 8002330:	62d0      	str	r0, [r2, #44]	; 0x2c
 8002332:	6291      	str	r1, [r2, #40]	; 0x28
 8002334:	e7e6      	b.n	8002304 <HAL_TIM_PWM_Init+0x80>
 8002336:	4e07      	ldr	r6, [pc, #28]	; (8002354 <HAL_TIM_PWM_Init+0xd0>)
 8002338:	4033      	ands	r3, r6
 800233a:	6926      	ldr	r6, [r4, #16]
 800233c:	4333      	orrs	r3, r6
 800233e:	e7c4      	b.n	80022ca <HAL_TIM_PWM_Init+0x46>
 8002340:	40012c00 	.word	0x40012c00
 8002344:	40000400 	.word	0x40000400
 8002348:	40002000 	.word	0x40002000
 800234c:	40014400 	.word	0x40014400
 8002350:	40014800 	.word	0x40014800
 8002354:	fffffcff 	.word	0xfffffcff

08002358 <HAL_TIM_PWM_Start_DMA>:
 8002358:	b570      	push	{r4, r5, r6, lr}
 800235a:	000d      	movs	r5, r1
 800235c:	0011      	movs	r1, r2
 800235e:	223d      	movs	r2, #61	; 0x3d
 8002360:	0004      	movs	r4, r0
 8002362:	5c80      	ldrb	r0, [r0, r2]
 8002364:	2802      	cmp	r0, #2
 8002366:	d100      	bne.n	800236a <HAL_TIM_PWM_Start_DMA+0x12>
 8002368:	e07c      	b.n	8002464 <HAL_TIM_PWM_Start_DMA+0x10c>
 800236a:	5ca2      	ldrb	r2, [r4, r2]
 800236c:	2a01      	cmp	r2, #1
 800236e:	d05a      	beq.n	8002426 <HAL_TIM_PWM_Start_DMA+0xce>
 8002370:	6822      	ldr	r2, [r4, #0]
 8002372:	2d04      	cmp	r5, #4
 8002374:	d05f      	beq.n	8002436 <HAL_TIM_PWM_Start_DMA+0xde>
 8002376:	2d04      	cmp	r5, #4
 8002378:	d934      	bls.n	80023e4 <HAL_TIM_PWM_Start_DMA+0x8c>
 800237a:	2d08      	cmp	r5, #8
 800237c:	d100      	bne.n	8002380 <HAL_TIM_PWM_Start_DMA+0x28>
 800237e:	e073      	b.n	8002468 <HAL_TIM_PWM_Start_DMA+0x110>
 8002380:	2d0c      	cmp	r5, #12
 8002382:	d111      	bne.n	80023a8 <HAL_TIM_PWM_Start_DMA+0x50>
 8002384:	6b20      	ldr	r0, [r4, #48]	; 0x30
 8002386:	4e42      	ldr	r6, [pc, #264]	; (8002490 <HAL_TIM_PWM_Start_DMA+0x138>)
 8002388:	3240      	adds	r2, #64	; 0x40
 800238a:	6286      	str	r6, [r0, #40]	; 0x28
 800238c:	4e41      	ldr	r6, [pc, #260]	; (8002494 <HAL_TIM_PWM_Start_DMA+0x13c>)
 800238e:	62c6      	str	r6, [r0, #44]	; 0x2c
 8002390:	4e41      	ldr	r6, [pc, #260]	; (8002498 <HAL_TIM_PWM_Start_DMA+0x140>)
 8002392:	6306      	str	r6, [r0, #48]	; 0x30
 8002394:	f7ff fa0c 	bl	80017b0 <HAL_DMA_Start_IT>
 8002398:	2800      	cmp	r0, #0
 800239a:	d161      	bne.n	8002460 <HAL_TIM_PWM_Start_DMA+0x108>
 800239c:	2380      	movs	r3, #128	; 0x80
 800239e:	6822      	ldr	r2, [r4, #0]
 80023a0:	015b      	lsls	r3, r3, #5
 80023a2:	68d1      	ldr	r1, [r2, #12]
 80023a4:	430b      	orrs	r3, r1
 80023a6:	60d3      	str	r3, [r2, #12]
 80023a8:	231f      	movs	r3, #31
 80023aa:	401d      	ands	r5, r3
 80023ac:	3b1e      	subs	r3, #30
 80023ae:	40ab      	lsls	r3, r5
 80023b0:	6a11      	ldr	r1, [r2, #32]
 80023b2:	4399      	bics	r1, r3
 80023b4:	6211      	str	r1, [r2, #32]
 80023b6:	6a11      	ldr	r1, [r2, #32]
 80023b8:	430b      	orrs	r3, r1
 80023ba:	6213      	str	r3, [r2, #32]
 80023bc:	4b37      	ldr	r3, [pc, #220]	; (800249c <HAL_TIM_PWM_Start_DMA+0x144>)
 80023be:	429a      	cmp	r2, r3
 80023c0:	d025      	beq.n	800240e <HAL_TIM_PWM_Start_DMA+0xb6>
 80023c2:	4b37      	ldr	r3, [pc, #220]	; (80024a0 <HAL_TIM_PWM_Start_DMA+0x148>)
 80023c4:	429a      	cmp	r2, r3
 80023c6:	d022      	beq.n	800240e <HAL_TIM_PWM_Start_DMA+0xb6>
 80023c8:	4b36      	ldr	r3, [pc, #216]	; (80024a4 <HAL_TIM_PWM_Start_DMA+0x14c>)
 80023ca:	429a      	cmp	r2, r3
 80023cc:	d01f      	beq.n	800240e <HAL_TIM_PWM_Start_DMA+0xb6>
 80023ce:	2307      	movs	r3, #7
 80023d0:	6891      	ldr	r1, [r2, #8]
 80023d2:	400b      	ands	r3, r1
 80023d4:	2b06      	cmp	r3, #6
 80023d6:	d024      	beq.n	8002422 <HAL_TIM_PWM_Start_DMA+0xca>
 80023d8:	2101      	movs	r1, #1
 80023da:	2000      	movs	r0, #0
 80023dc:	6813      	ldr	r3, [r2, #0]
 80023de:	430b      	orrs	r3, r1
 80023e0:	6013      	str	r3, [r2, #0]
 80023e2:	bd70      	pop	{r4, r5, r6, pc}
 80023e4:	2d00      	cmp	r5, #0
 80023e6:	d1df      	bne.n	80023a8 <HAL_TIM_PWM_Start_DMA+0x50>
 80023e8:	6a60      	ldr	r0, [r4, #36]	; 0x24
 80023ea:	4e29      	ldr	r6, [pc, #164]	; (8002490 <HAL_TIM_PWM_Start_DMA+0x138>)
 80023ec:	3234      	adds	r2, #52	; 0x34
 80023ee:	6286      	str	r6, [r0, #40]	; 0x28
 80023f0:	4e28      	ldr	r6, [pc, #160]	; (8002494 <HAL_TIM_PWM_Start_DMA+0x13c>)
 80023f2:	62c6      	str	r6, [r0, #44]	; 0x2c
 80023f4:	4e28      	ldr	r6, [pc, #160]	; (8002498 <HAL_TIM_PWM_Start_DMA+0x140>)
 80023f6:	6306      	str	r6, [r0, #48]	; 0x30
 80023f8:	f7ff f9da 	bl	80017b0 <HAL_DMA_Start_IT>
 80023fc:	2800      	cmp	r0, #0
 80023fe:	d12f      	bne.n	8002460 <HAL_TIM_PWM_Start_DMA+0x108>
 8002400:	2380      	movs	r3, #128	; 0x80
 8002402:	6822      	ldr	r2, [r4, #0]
 8002404:	009b      	lsls	r3, r3, #2
 8002406:	68d1      	ldr	r1, [r2, #12]
 8002408:	430b      	orrs	r3, r1
 800240a:	60d3      	str	r3, [r2, #12]
 800240c:	e7cc      	b.n	80023a8 <HAL_TIM_PWM_Start_DMA+0x50>
 800240e:	2380      	movs	r3, #128	; 0x80
 8002410:	6c51      	ldr	r1, [r2, #68]	; 0x44
 8002412:	021b      	lsls	r3, r3, #8
 8002414:	430b      	orrs	r3, r1
 8002416:	6453      	str	r3, [r2, #68]	; 0x44
 8002418:	2307      	movs	r3, #7
 800241a:	6891      	ldr	r1, [r2, #8]
 800241c:	400b      	ands	r3, r1
 800241e:	2b06      	cmp	r3, #6
 8002420:	d1da      	bne.n	80023d8 <HAL_TIM_PWM_Start_DMA+0x80>
 8002422:	2000      	movs	r0, #0
 8002424:	e7dd      	b.n	80023e2 <HAL_TIM_PWM_Start_DMA+0x8a>
 8002426:	2900      	cmp	r1, #0
 8002428:	d018      	beq.n	800245c <HAL_TIM_PWM_Start_DMA+0x104>
 800242a:	223d      	movs	r2, #61	; 0x3d
 800242c:	2002      	movs	r0, #2
 800242e:	54a0      	strb	r0, [r4, r2]
 8002430:	6822      	ldr	r2, [r4, #0]
 8002432:	2d04      	cmp	r5, #4
 8002434:	d19f      	bne.n	8002376 <HAL_TIM_PWM_Start_DMA+0x1e>
 8002436:	6aa0      	ldr	r0, [r4, #40]	; 0x28
 8002438:	4e15      	ldr	r6, [pc, #84]	; (8002490 <HAL_TIM_PWM_Start_DMA+0x138>)
 800243a:	3238      	adds	r2, #56	; 0x38
 800243c:	6286      	str	r6, [r0, #40]	; 0x28
 800243e:	4e15      	ldr	r6, [pc, #84]	; (8002494 <HAL_TIM_PWM_Start_DMA+0x13c>)
 8002440:	62c6      	str	r6, [r0, #44]	; 0x2c
 8002442:	4e15      	ldr	r6, [pc, #84]	; (8002498 <HAL_TIM_PWM_Start_DMA+0x140>)
 8002444:	6306      	str	r6, [r0, #48]	; 0x30
 8002446:	f7ff f9b3 	bl	80017b0 <HAL_DMA_Start_IT>
 800244a:	2800      	cmp	r0, #0
 800244c:	d108      	bne.n	8002460 <HAL_TIM_PWM_Start_DMA+0x108>
 800244e:	2380      	movs	r3, #128	; 0x80
 8002450:	6822      	ldr	r2, [r4, #0]
 8002452:	00db      	lsls	r3, r3, #3
 8002454:	68d1      	ldr	r1, [r2, #12]
 8002456:	430b      	orrs	r3, r1
 8002458:	60d3      	str	r3, [r2, #12]
 800245a:	e7a5      	b.n	80023a8 <HAL_TIM_PWM_Start_DMA+0x50>
 800245c:	2b00      	cmp	r3, #0
 800245e:	d0e4      	beq.n	800242a <HAL_TIM_PWM_Start_DMA+0xd2>
 8002460:	2001      	movs	r0, #1
 8002462:	e7be      	b.n	80023e2 <HAL_TIM_PWM_Start_DMA+0x8a>
 8002464:	2002      	movs	r0, #2
 8002466:	e7bc      	b.n	80023e2 <HAL_TIM_PWM_Start_DMA+0x8a>
 8002468:	6ae0      	ldr	r0, [r4, #44]	; 0x2c
 800246a:	4e09      	ldr	r6, [pc, #36]	; (8002490 <HAL_TIM_PWM_Start_DMA+0x138>)
 800246c:	323c      	adds	r2, #60	; 0x3c
 800246e:	6286      	str	r6, [r0, #40]	; 0x28
 8002470:	4e08      	ldr	r6, [pc, #32]	; (8002494 <HAL_TIM_PWM_Start_DMA+0x13c>)
 8002472:	62c6      	str	r6, [r0, #44]	; 0x2c
 8002474:	4e08      	ldr	r6, [pc, #32]	; (8002498 <HAL_TIM_PWM_Start_DMA+0x140>)
 8002476:	6306      	str	r6, [r0, #48]	; 0x30
 8002478:	f7ff f99a 	bl	80017b0 <HAL_DMA_Start_IT>
 800247c:	2800      	cmp	r0, #0
 800247e:	d1ef      	bne.n	8002460 <HAL_TIM_PWM_Start_DMA+0x108>
 8002480:	2380      	movs	r3, #128	; 0x80
 8002482:	6822      	ldr	r2, [r4, #0]
 8002484:	011b      	lsls	r3, r3, #4
 8002486:	68d1      	ldr	r1, [r2, #12]
 8002488:	430b      	orrs	r3, r1
 800248a:	60d3      	str	r3, [r2, #12]
 800248c:	e78c      	b.n	80023a8 <HAL_TIM_PWM_Start_DMA+0x50>
 800248e:	46c0      	nop			; (mov r8, r8)
 8002490:	0800284d 	.word	0x0800284d
 8002494:	08002891 	.word	0x08002891
 8002498:	08002a31 	.word	0x08002a31
 800249c:	40012c00 	.word	0x40012c00
 80024a0:	40014400 	.word	0x40014400
 80024a4:	40014800 	.word	0x40014800

080024a8 <HAL_TIM_PWM_ConfigChannel>:
 80024a8:	233c      	movs	r3, #60	; 0x3c
 80024aa:	b5f0      	push	{r4, r5, r6, r7, lr}
 80024ac:	5cc4      	ldrb	r4, [r0, r3]
 80024ae:	2c01      	cmp	r4, #1
 80024b0:	d100      	bne.n	80024b4 <HAL_TIM_PWM_ConfigChannel+0xc>
 80024b2:	e073      	b.n	800259c <HAL_TIM_PWM_ConfigChannel+0xf4>
 80024b4:	2501      	movs	r5, #1
 80024b6:	2402      	movs	r4, #2
 80024b8:	54c5      	strb	r5, [r0, r3]
 80024ba:	3301      	adds	r3, #1
 80024bc:	54c4      	strb	r4, [r0, r3]
 80024be:	2a04      	cmp	r2, #4
 80024c0:	d100      	bne.n	80024c4 <HAL_TIM_PWM_ConfigChannel+0x1c>
 80024c2:	e099      	b.n	80025f8 <HAL_TIM_PWM_ConfigChannel+0x150>
 80024c4:	d93c      	bls.n	8002540 <HAL_TIM_PWM_ConfigChannel+0x98>
 80024c6:	2a08      	cmp	r2, #8
 80024c8:	d06a      	beq.n	80025a0 <HAL_TIM_PWM_ConfigChannel+0xf8>
 80024ca:	2a0c      	cmp	r2, #12
 80024cc:	d130      	bne.n	8002530 <HAL_TIM_PWM_ConfigChannel+0x88>
 80024ce:	6803      	ldr	r3, [r0, #0]
 80024d0:	4c7a      	ldr	r4, [pc, #488]	; (80026bc <HAL_TIM_PWM_ConfigChannel+0x214>)
 80024d2:	6a1a      	ldr	r2, [r3, #32]
 80024d4:	4d7a      	ldr	r5, [pc, #488]	; (80026c0 <HAL_TIM_PWM_ConfigChannel+0x218>)
 80024d6:	4022      	ands	r2, r4
 80024d8:	621a      	str	r2, [r3, #32]
 80024da:	6a1a      	ldr	r2, [r3, #32]
 80024dc:	685f      	ldr	r7, [r3, #4]
 80024de:	69dc      	ldr	r4, [r3, #28]
 80024e0:	402c      	ands	r4, r5
 80024e2:	680d      	ldr	r5, [r1, #0]
 80024e4:	022d      	lsls	r5, r5, #8
 80024e6:	4325      	orrs	r5, r4
 80024e8:	4c76      	ldr	r4, [pc, #472]	; (80026c4 <HAL_TIM_PWM_ConfigChannel+0x21c>)
 80024ea:	4014      	ands	r4, r2
 80024ec:	688a      	ldr	r2, [r1, #8]
 80024ee:	0312      	lsls	r2, r2, #12
 80024f0:	4322      	orrs	r2, r4
 80024f2:	4c75      	ldr	r4, [pc, #468]	; (80026c8 <HAL_TIM_PWM_ConfigChannel+0x220>)
 80024f4:	42a3      	cmp	r3, r4
 80024f6:	d100      	bne.n	80024fa <HAL_TIM_PWM_ConfigChannel+0x52>
 80024f8:	e0cc      	b.n	8002694 <HAL_TIM_PWM_ConfigChannel+0x1ec>
 80024fa:	4c74      	ldr	r4, [pc, #464]	; (80026cc <HAL_TIM_PWM_ConfigChannel+0x224>)
 80024fc:	42a3      	cmp	r3, r4
 80024fe:	d100      	bne.n	8002502 <HAL_TIM_PWM_ConfigChannel+0x5a>
 8002500:	e0c8      	b.n	8002694 <HAL_TIM_PWM_ConfigChannel+0x1ec>
 8002502:	4c73      	ldr	r4, [pc, #460]	; (80026d0 <HAL_TIM_PWM_ConfigChannel+0x228>)
 8002504:	42a3      	cmp	r3, r4
 8002506:	d100      	bne.n	800250a <HAL_TIM_PWM_ConfigChannel+0x62>
 8002508:	e0c4      	b.n	8002694 <HAL_TIM_PWM_ConfigChannel+0x1ec>
 800250a:	684c      	ldr	r4, [r1, #4]
 800250c:	605f      	str	r7, [r3, #4]
 800250e:	61dd      	str	r5, [r3, #28]
 8002510:	641c      	str	r4, [r3, #64]	; 0x40
 8002512:	621a      	str	r2, [r3, #32]
 8002514:	2280      	movs	r2, #128	; 0x80
 8002516:	69dc      	ldr	r4, [r3, #28]
 8002518:	0112      	lsls	r2, r2, #4
 800251a:	4322      	orrs	r2, r4
 800251c:	61da      	str	r2, [r3, #28]
 800251e:	69da      	ldr	r2, [r3, #28]
 8002520:	4c6c      	ldr	r4, [pc, #432]	; (80026d4 <HAL_TIM_PWM_ConfigChannel+0x22c>)
 8002522:	4022      	ands	r2, r4
 8002524:	61da      	str	r2, [r3, #28]
 8002526:	690a      	ldr	r2, [r1, #16]
 8002528:	69dc      	ldr	r4, [r3, #28]
 800252a:	0212      	lsls	r2, r2, #8
 800252c:	4322      	orrs	r2, r4
 800252e:	61da      	str	r2, [r3, #28]
 8002530:	233d      	movs	r3, #61	; 0x3d
 8002532:	2201      	movs	r2, #1
 8002534:	54c2      	strb	r2, [r0, r3]
 8002536:	2200      	movs	r2, #0
 8002538:	3b01      	subs	r3, #1
 800253a:	54c2      	strb	r2, [r0, r3]
 800253c:	2000      	movs	r0, #0
 800253e:	bdf0      	pop	{r4, r5, r6, r7, pc}
 8002540:	2a00      	cmp	r2, #0
 8002542:	d1f5      	bne.n	8002530 <HAL_TIM_PWM_ConfigChannel+0x88>
 8002544:	2773      	movs	r7, #115	; 0x73
 8002546:	6803      	ldr	r3, [r0, #0]
 8002548:	6a1a      	ldr	r2, [r3, #32]
 800254a:	43aa      	bics	r2, r5
 800254c:	621a      	str	r2, [r3, #32]
 800254e:	6a1a      	ldr	r2, [r3, #32]
 8002550:	685e      	ldr	r6, [r3, #4]
 8002552:	699d      	ldr	r5, [r3, #24]
 8002554:	43a2      	bics	r2, r4
 8002556:	43bd      	bics	r5, r7
 8002558:	680f      	ldr	r7, [r1, #0]
 800255a:	688c      	ldr	r4, [r1, #8]
 800255c:	433d      	orrs	r5, r7
 800255e:	4f5a      	ldr	r7, [pc, #360]	; (80026c8 <HAL_TIM_PWM_ConfigChannel+0x220>)
 8002560:	4322      	orrs	r2, r4
 8002562:	42bb      	cmp	r3, r7
 8002564:	d100      	bne.n	8002568 <HAL_TIM_PWM_ConfigChannel+0xc0>
 8002566:	e09b      	b.n	80026a0 <HAL_TIM_PWM_ConfigChannel+0x1f8>
 8002568:	4c58      	ldr	r4, [pc, #352]	; (80026cc <HAL_TIM_PWM_ConfigChannel+0x224>)
 800256a:	42a3      	cmp	r3, r4
 800256c:	d100      	bne.n	8002570 <HAL_TIM_PWM_ConfigChannel+0xc8>
 800256e:	e097      	b.n	80026a0 <HAL_TIM_PWM_ConfigChannel+0x1f8>
 8002570:	4c57      	ldr	r4, [pc, #348]	; (80026d0 <HAL_TIM_PWM_ConfigChannel+0x228>)
 8002572:	42a3      	cmp	r3, r4
 8002574:	d100      	bne.n	8002578 <HAL_TIM_PWM_ConfigChannel+0xd0>
 8002576:	e093      	b.n	80026a0 <HAL_TIM_PWM_ConfigChannel+0x1f8>
 8002578:	684c      	ldr	r4, [r1, #4]
 800257a:	605e      	str	r6, [r3, #4]
 800257c:	619d      	str	r5, [r3, #24]
 800257e:	635c      	str	r4, [r3, #52]	; 0x34
 8002580:	2408      	movs	r4, #8
 8002582:	621a      	str	r2, [r3, #32]
 8002584:	699a      	ldr	r2, [r3, #24]
 8002586:	6909      	ldr	r1, [r1, #16]
 8002588:	4322      	orrs	r2, r4
 800258a:	619a      	str	r2, [r3, #24]
 800258c:	699a      	ldr	r2, [r3, #24]
 800258e:	3c04      	subs	r4, #4
 8002590:	43a2      	bics	r2, r4
 8002592:	619a      	str	r2, [r3, #24]
 8002594:	699a      	ldr	r2, [r3, #24]
 8002596:	430a      	orrs	r2, r1
 8002598:	619a      	str	r2, [r3, #24]
 800259a:	e7c9      	b.n	8002530 <HAL_TIM_PWM_ConfigChannel+0x88>
 800259c:	2002      	movs	r0, #2
 800259e:	e7ce      	b.n	800253e <HAL_TIM_PWM_ConfigChannel+0x96>
 80025a0:	2673      	movs	r6, #115	; 0x73
 80025a2:	6803      	ldr	r3, [r0, #0]
 80025a4:	4c4c      	ldr	r4, [pc, #304]	; (80026d8 <HAL_TIM_PWM_ConfigChannel+0x230>)
 80025a6:	6a1a      	ldr	r2, [r3, #32]
 80025a8:	680f      	ldr	r7, [r1, #0]
 80025aa:	4022      	ands	r2, r4
 80025ac:	621a      	str	r2, [r3, #32]
 80025ae:	6a1c      	ldr	r4, [r3, #32]
 80025b0:	685a      	ldr	r2, [r3, #4]
 80025b2:	69dd      	ldr	r5, [r3, #28]
 80025b4:	43b5      	bics	r5, r6
 80025b6:	432f      	orrs	r7, r5
 80025b8:	4d48      	ldr	r5, [pc, #288]	; (80026dc <HAL_TIM_PWM_ConfigChannel+0x234>)
 80025ba:	4e43      	ldr	r6, [pc, #268]	; (80026c8 <HAL_TIM_PWM_ConfigChannel+0x220>)
 80025bc:	402c      	ands	r4, r5
 80025be:	688d      	ldr	r5, [r1, #8]
 80025c0:	022d      	lsls	r5, r5, #8
 80025c2:	432c      	orrs	r4, r5
 80025c4:	42b3      	cmp	r3, r6
 80025c6:	d046      	beq.n	8002656 <HAL_TIM_PWM_ConfigChannel+0x1ae>
 80025c8:	4e40      	ldr	r6, [pc, #256]	; (80026cc <HAL_TIM_PWM_ConfigChannel+0x224>)
 80025ca:	42b3      	cmp	r3, r6
 80025cc:	d04a      	beq.n	8002664 <HAL_TIM_PWM_ConfigChannel+0x1bc>
 80025ce:	4d40      	ldr	r5, [pc, #256]	; (80026d0 <HAL_TIM_PWM_ConfigChannel+0x228>)
 80025d0:	42ab      	cmp	r3, r5
 80025d2:	d047      	beq.n	8002664 <HAL_TIM_PWM_ConfigChannel+0x1bc>
 80025d4:	605a      	str	r2, [r3, #4]
 80025d6:	684a      	ldr	r2, [r1, #4]
 80025d8:	61df      	str	r7, [r3, #28]
 80025da:	63da      	str	r2, [r3, #60]	; 0x3c
 80025dc:	621c      	str	r4, [r3, #32]
 80025de:	2408      	movs	r4, #8
 80025e0:	69da      	ldr	r2, [r3, #28]
 80025e2:	6909      	ldr	r1, [r1, #16]
 80025e4:	4322      	orrs	r2, r4
 80025e6:	61da      	str	r2, [r3, #28]
 80025e8:	69da      	ldr	r2, [r3, #28]
 80025ea:	3c04      	subs	r4, #4
 80025ec:	43a2      	bics	r2, r4
 80025ee:	61da      	str	r2, [r3, #28]
 80025f0:	69da      	ldr	r2, [r3, #28]
 80025f2:	430a      	orrs	r2, r1
 80025f4:	61da      	str	r2, [r3, #28]
 80025f6:	e79b      	b.n	8002530 <HAL_TIM_PWM_ConfigChannel+0x88>
 80025f8:	2410      	movs	r4, #16
 80025fa:	6803      	ldr	r3, [r0, #0]
 80025fc:	4e30      	ldr	r6, [pc, #192]	; (80026c0 <HAL_TIM_PWM_ConfigChannel+0x218>)
 80025fe:	6a1a      	ldr	r2, [r3, #32]
 8002600:	4f31      	ldr	r7, [pc, #196]	; (80026c8 <HAL_TIM_PWM_ConfigChannel+0x220>)
 8002602:	43a2      	bics	r2, r4
 8002604:	621a      	str	r2, [r3, #32]
 8002606:	6a1c      	ldr	r4, [r3, #32]
 8002608:	685a      	ldr	r2, [r3, #4]
 800260a:	699d      	ldr	r5, [r3, #24]
 800260c:	4035      	ands	r5, r6
 800260e:	680e      	ldr	r6, [r1, #0]
 8002610:	0236      	lsls	r6, r6, #8
 8002612:	432e      	orrs	r6, r5
 8002614:	2520      	movs	r5, #32
 8002616:	43ac      	bics	r4, r5
 8002618:	688d      	ldr	r5, [r1, #8]
 800261a:	012d      	lsls	r5, r5, #4
 800261c:	432c      	orrs	r4, r5
 800261e:	42bb      	cmp	r3, r7
 8002620:	d028      	beq.n	8002674 <HAL_TIM_PWM_ConfigChannel+0x1cc>
 8002622:	4f2a      	ldr	r7, [pc, #168]	; (80026cc <HAL_TIM_PWM_ConfigChannel+0x224>)
 8002624:	42bb      	cmp	r3, r7
 8002626:	d02d      	beq.n	8002684 <HAL_TIM_PWM_ConfigChannel+0x1dc>
 8002628:	4f29      	ldr	r7, [pc, #164]	; (80026d0 <HAL_TIM_PWM_ConfigChannel+0x228>)
 800262a:	42bb      	cmp	r3, r7
 800262c:	d02a      	beq.n	8002684 <HAL_TIM_PWM_ConfigChannel+0x1dc>
 800262e:	605a      	str	r2, [r3, #4]
 8002630:	684a      	ldr	r2, [r1, #4]
 8002632:	619e      	str	r6, [r3, #24]
 8002634:	639a      	str	r2, [r3, #56]	; 0x38
 8002636:	2280      	movs	r2, #128	; 0x80
 8002638:	621c      	str	r4, [r3, #32]
 800263a:	699c      	ldr	r4, [r3, #24]
 800263c:	0112      	lsls	r2, r2, #4
 800263e:	4322      	orrs	r2, r4
 8002640:	619a      	str	r2, [r3, #24]
 8002642:	699a      	ldr	r2, [r3, #24]
 8002644:	4c23      	ldr	r4, [pc, #140]	; (80026d4 <HAL_TIM_PWM_ConfigChannel+0x22c>)
 8002646:	4022      	ands	r2, r4
 8002648:	619a      	str	r2, [r3, #24]
 800264a:	690a      	ldr	r2, [r1, #16]
 800264c:	699c      	ldr	r4, [r3, #24]
 800264e:	0212      	lsls	r2, r2, #8
 8002650:	4322      	orrs	r2, r4
 8002652:	619a      	str	r2, [r3, #24]
 8002654:	e76c      	b.n	8002530 <HAL_TIM_PWM_ConfigChannel+0x88>
 8002656:	4d22      	ldr	r5, [pc, #136]	; (80026e0 <HAL_TIM_PWM_ConfigChannel+0x238>)
 8002658:	4025      	ands	r5, r4
 800265a:	68cc      	ldr	r4, [r1, #12]
 800265c:	0224      	lsls	r4, r4, #8
 800265e:	432c      	orrs	r4, r5
 8002660:	4d1c      	ldr	r5, [pc, #112]	; (80026d4 <HAL_TIM_PWM_ConfigChannel+0x22c>)
 8002662:	402c      	ands	r4, r5
 8002664:	4e1f      	ldr	r6, [pc, #124]	; (80026e4 <HAL_TIM_PWM_ConfigChannel+0x23c>)
 8002666:	694d      	ldr	r5, [r1, #20]
 8002668:	4016      	ands	r6, r2
 800266a:	698a      	ldr	r2, [r1, #24]
 800266c:	432a      	orrs	r2, r5
 800266e:	0112      	lsls	r2, r2, #4
 8002670:	4332      	orrs	r2, r6
 8002672:	e7af      	b.n	80025d4 <HAL_TIM_PWM_ConfigChannel+0x12c>
 8002674:	2580      	movs	r5, #128	; 0x80
 8002676:	43ac      	bics	r4, r5
 8002678:	0025      	movs	r5, r4
 800267a:	68cc      	ldr	r4, [r1, #12]
 800267c:	0124      	lsls	r4, r4, #4
 800267e:	432c      	orrs	r4, r5
 8002680:	2540      	movs	r5, #64	; 0x40
 8002682:	43ac      	bics	r4, r5
 8002684:	4f18      	ldr	r7, [pc, #96]	; (80026e8 <HAL_TIM_PWM_ConfigChannel+0x240>)
 8002686:	694d      	ldr	r5, [r1, #20]
 8002688:	4017      	ands	r7, r2
 800268a:	698a      	ldr	r2, [r1, #24]
 800268c:	432a      	orrs	r2, r5
 800268e:	0092      	lsls	r2, r2, #2
 8002690:	433a      	orrs	r2, r7
 8002692:	e7cc      	b.n	800262e <HAL_TIM_PWM_ConfigChannel+0x186>
 8002694:	4e15      	ldr	r6, [pc, #84]	; (80026ec <HAL_TIM_PWM_ConfigChannel+0x244>)
 8002696:	694c      	ldr	r4, [r1, #20]
 8002698:	403e      	ands	r6, r7
 800269a:	01a7      	lsls	r7, r4, #6
 800269c:	4337      	orrs	r7, r6
 800269e:	e734      	b.n	800250a <HAL_TIM_PWM_ConfigChannel+0x62>
 80026a0:	2408      	movs	r4, #8
 80026a2:	43a2      	bics	r2, r4
 80026a4:	68cc      	ldr	r4, [r1, #12]
 80026a6:	698f      	ldr	r7, [r1, #24]
 80026a8:	4322      	orrs	r2, r4
 80026aa:	2404      	movs	r4, #4
 80026ac:	43a2      	bics	r2, r4
 80026ae:	4c10      	ldr	r4, [pc, #64]	; (80026f0 <HAL_TIM_PWM_ConfigChannel+0x248>)
 80026b0:	4034      	ands	r4, r6
 80026b2:	694e      	ldr	r6, [r1, #20]
 80026b4:	433e      	orrs	r6, r7
 80026b6:	4326      	orrs	r6, r4
 80026b8:	e75e      	b.n	8002578 <HAL_TIM_PWM_ConfigChannel+0xd0>
 80026ba:	46c0      	nop			; (mov r8, r8)
 80026bc:	ffffefff 	.word	0xffffefff
 80026c0:	ffff8cff 	.word	0xffff8cff
 80026c4:	ffffdfff 	.word	0xffffdfff
 80026c8:	40012c00 	.word	0x40012c00
 80026cc:	40014400 	.word	0x40014400
 80026d0:	40014800 	.word	0x40014800
 80026d4:	fffffbff 	.word	0xfffffbff
 80026d8:	fffffeff 	.word	0xfffffeff
 80026dc:	fffffdff 	.word	0xfffffdff
 80026e0:	fffff7ff 	.word	0xfffff7ff
 80026e4:	ffffcfff 	.word	0xffffcfff
 80026e8:	fffff3ff 	.word	0xfffff3ff
 80026ec:	ffffbfff 	.word	0xffffbfff
 80026f0:	fffffcff 	.word	0xfffffcff

080026f4 <HAL_TIM_ConfigClockSource>:
 80026f4:	233c      	movs	r3, #60	; 0x3c
 80026f6:	b570      	push	{r4, r5, r6, lr}
 80026f8:	5cc2      	ldrb	r2, [r0, r3]
 80026fa:	2a01      	cmp	r2, #1
 80026fc:	d058      	beq.n	80027b0 <HAL_TIM_ConfigClockSource+0xbc>
 80026fe:	2401      	movs	r4, #1
 8002700:	2202      	movs	r2, #2
 8002702:	54c4      	strb	r4, [r0, r3]
 8002704:	3301      	adds	r3, #1
 8002706:	54c2      	strb	r2, [r0, r3]
 8002708:	6803      	ldr	r3, [r0, #0]
 800270a:	4d4b      	ldr	r5, [pc, #300]	; (8002838 <HAL_TIM_ConfigClockSource+0x144>)
 800270c:	689a      	ldr	r2, [r3, #8]
 800270e:	402a      	ands	r2, r5
 8002710:	609a      	str	r2, [r3, #8]
 8002712:	680a      	ldr	r2, [r1, #0]
 8002714:	2a40      	cmp	r2, #64	; 0x40
 8002716:	d100      	bne.n	800271a <HAL_TIM_ConfigClockSource+0x26>
 8002718:	e074      	b.n	8002804 <HAL_TIM_ConfigClockSource+0x110>
 800271a:	d94b      	bls.n	80027b4 <HAL_TIM_ConfigClockSource+0xc0>
 800271c:	2a60      	cmp	r2, #96	; 0x60
 800271e:	d02e      	beq.n	800277e <HAL_TIM_ConfigClockSource+0x8a>
 8002720:	d957      	bls.n	80027d2 <HAL_TIM_ConfigClockSource+0xde>
 8002722:	2a70      	cmp	r2, #112	; 0x70
 8002724:	d01b      	beq.n	800275e <HAL_TIM_ConfigClockSource+0x6a>
 8002726:	2480      	movs	r4, #128	; 0x80
 8002728:	01a4      	lsls	r4, r4, #6
 800272a:	42a2      	cmp	r2, r4
 800272c:	d10f      	bne.n	800274e <HAL_TIM_ConfigClockSource+0x5a>
 800272e:	689a      	ldr	r2, [r3, #8]
 8002730:	4c42      	ldr	r4, [pc, #264]	; (800283c <HAL_TIM_ConfigClockSource+0x148>)
 8002732:	684d      	ldr	r5, [r1, #4]
 8002734:	4014      	ands	r4, r2
 8002736:	688a      	ldr	r2, [r1, #8]
 8002738:	68c9      	ldr	r1, [r1, #12]
 800273a:	432a      	orrs	r2, r5
 800273c:	0209      	lsls	r1, r1, #8
 800273e:	430a      	orrs	r2, r1
 8002740:	4322      	orrs	r2, r4
 8002742:	609a      	str	r2, [r3, #8]
 8002744:	2280      	movs	r2, #128	; 0x80
 8002746:	6899      	ldr	r1, [r3, #8]
 8002748:	01d2      	lsls	r2, r2, #7
 800274a:	430a      	orrs	r2, r1
 800274c:	609a      	str	r2, [r3, #8]
 800274e:	233d      	movs	r3, #61	; 0x3d
 8002750:	2201      	movs	r2, #1
 8002752:	54c2      	strb	r2, [r0, r3]
 8002754:	2200      	movs	r2, #0
 8002756:	3b01      	subs	r3, #1
 8002758:	54c2      	strb	r2, [r0, r3]
 800275a:	2000      	movs	r0, #0
 800275c:	bd70      	pop	{r4, r5, r6, pc}
 800275e:	689a      	ldr	r2, [r3, #8]
 8002760:	4c36      	ldr	r4, [pc, #216]	; (800283c <HAL_TIM_ConfigClockSource+0x148>)
 8002762:	684d      	ldr	r5, [r1, #4]
 8002764:	4014      	ands	r4, r2
 8002766:	688a      	ldr	r2, [r1, #8]
 8002768:	68c9      	ldr	r1, [r1, #12]
 800276a:	432a      	orrs	r2, r5
 800276c:	0209      	lsls	r1, r1, #8
 800276e:	430a      	orrs	r2, r1
 8002770:	2177      	movs	r1, #119	; 0x77
 8002772:	4322      	orrs	r2, r4
 8002774:	609a      	str	r2, [r3, #8]
 8002776:	689a      	ldr	r2, [r3, #8]
 8002778:	430a      	orrs	r2, r1
 800277a:	609a      	str	r2, [r3, #8]
 800277c:	e7e7      	b.n	800274e <HAL_TIM_ConfigClockSource+0x5a>
 800277e:	2510      	movs	r5, #16
 8002780:	6a1c      	ldr	r4, [r3, #32]
 8002782:	684a      	ldr	r2, [r1, #4]
 8002784:	43ac      	bics	r4, r5
 8002786:	68c9      	ldr	r1, [r1, #12]
 8002788:	621c      	str	r4, [r3, #32]
 800278a:	699d      	ldr	r5, [r3, #24]
 800278c:	4e2c      	ldr	r6, [pc, #176]	; (8002840 <HAL_TIM_ConfigClockSource+0x14c>)
 800278e:	0309      	lsls	r1, r1, #12
 8002790:	4035      	ands	r5, r6
 8002792:	4329      	orrs	r1, r5
 8002794:	25a0      	movs	r5, #160	; 0xa0
 8002796:	6a1c      	ldr	r4, [r3, #32]
 8002798:	6199      	str	r1, [r3, #24]
 800279a:	2170      	movs	r1, #112	; 0x70
 800279c:	43ac      	bics	r4, r5
 800279e:	0112      	lsls	r2, r2, #4
 80027a0:	4322      	orrs	r2, r4
 80027a2:	621a      	str	r2, [r3, #32]
 80027a4:	689a      	ldr	r2, [r3, #8]
 80027a6:	438a      	bics	r2, r1
 80027a8:	3909      	subs	r1, #9
 80027aa:	430a      	orrs	r2, r1
 80027ac:	609a      	str	r2, [r3, #8]
 80027ae:	e7ce      	b.n	800274e <HAL_TIM_ConfigClockSource+0x5a>
 80027b0:	2002      	movs	r0, #2
 80027b2:	e7d3      	b.n	800275c <HAL_TIM_ConfigClockSource+0x68>
 80027b4:	2a10      	cmp	r2, #16
 80027b6:	d004      	beq.n	80027c2 <HAL_TIM_ConfigClockSource+0xce>
 80027b8:	d93b      	bls.n	8002832 <HAL_TIM_ConfigClockSource+0x13e>
 80027ba:	2a20      	cmp	r2, #32
 80027bc:	d001      	beq.n	80027c2 <HAL_TIM_ConfigClockSource+0xce>
 80027be:	2a30      	cmp	r2, #48	; 0x30
 80027c0:	d1c5      	bne.n	800274e <HAL_TIM_ConfigClockSource+0x5a>
 80027c2:	2470      	movs	r4, #112	; 0x70
 80027c4:	6899      	ldr	r1, [r3, #8]
 80027c6:	43a1      	bics	r1, r4
 80027c8:	3c69      	subs	r4, #105	; 0x69
 80027ca:	4322      	orrs	r2, r4
 80027cc:	430a      	orrs	r2, r1
 80027ce:	609a      	str	r2, [r3, #8]
 80027d0:	e7bd      	b.n	800274e <HAL_TIM_ConfigClockSource+0x5a>
 80027d2:	2a50      	cmp	r2, #80	; 0x50
 80027d4:	d1bb      	bne.n	800274e <HAL_TIM_ConfigClockSource+0x5a>
 80027d6:	684d      	ldr	r5, [r1, #4]
 80027d8:	68ca      	ldr	r2, [r1, #12]
 80027da:	6a19      	ldr	r1, [r3, #32]
 80027dc:	6a1e      	ldr	r6, [r3, #32]
 80027de:	0112      	lsls	r2, r2, #4
 80027e0:	43a6      	bics	r6, r4
 80027e2:	621e      	str	r6, [r3, #32]
 80027e4:	26f0      	movs	r6, #240	; 0xf0
 80027e6:	699c      	ldr	r4, [r3, #24]
 80027e8:	43b4      	bics	r4, r6
 80027ea:	4322      	orrs	r2, r4
 80027ec:	240a      	movs	r4, #10
 80027ee:	43a1      	bics	r1, r4
 80027f0:	4329      	orrs	r1, r5
 80027f2:	619a      	str	r2, [r3, #24]
 80027f4:	6219      	str	r1, [r3, #32]
 80027f6:	2170      	movs	r1, #112	; 0x70
 80027f8:	689a      	ldr	r2, [r3, #8]
 80027fa:	438a      	bics	r2, r1
 80027fc:	3919      	subs	r1, #25
 80027fe:	430a      	orrs	r2, r1
 8002800:	609a      	str	r2, [r3, #8]
 8002802:	e7a4      	b.n	800274e <HAL_TIM_ConfigClockSource+0x5a>
 8002804:	684d      	ldr	r5, [r1, #4]
 8002806:	68ca      	ldr	r2, [r1, #12]
 8002808:	6a19      	ldr	r1, [r3, #32]
 800280a:	6a1e      	ldr	r6, [r3, #32]
 800280c:	0112      	lsls	r2, r2, #4
 800280e:	43a6      	bics	r6, r4
 8002810:	621e      	str	r6, [r3, #32]
 8002812:	26f0      	movs	r6, #240	; 0xf0
 8002814:	699c      	ldr	r4, [r3, #24]
 8002816:	43b4      	bics	r4, r6
 8002818:	4322      	orrs	r2, r4
 800281a:	240a      	movs	r4, #10
 800281c:	43a1      	bics	r1, r4
 800281e:	4329      	orrs	r1, r5
 8002820:	619a      	str	r2, [r3, #24]
 8002822:	6219      	str	r1, [r3, #32]
 8002824:	2170      	movs	r1, #112	; 0x70
 8002826:	689a      	ldr	r2, [r3, #8]
 8002828:	438a      	bics	r2, r1
 800282a:	3929      	subs	r1, #41	; 0x29
 800282c:	430a      	orrs	r2, r1
 800282e:	609a      	str	r2, [r3, #8]
 8002830:	e78d      	b.n	800274e <HAL_TIM_ConfigClockSource+0x5a>
 8002832:	2a00      	cmp	r2, #0
 8002834:	d0c5      	beq.n	80027c2 <HAL_TIM_ConfigClockSource+0xce>
 8002836:	e78a      	b.n	800274e <HAL_TIM_ConfigClockSource+0x5a>
 8002838:	ffff0088 	.word	0xffff0088
 800283c:	ffff00ff 	.word	0xffff00ff
 8002840:	ffff0fff 	.word	0xffff0fff

08002844 <HAL_TIM_OC_DelayElapsedCallback>:
 8002844:	4770      	bx	lr
 8002846:	46c0      	nop			; (mov r8, r8)

08002848 <HAL_TIM_IC_CaptureCallback>:
 8002848:	4770      	bx	lr
 800284a:	46c0      	nop			; (mov r8, r8)

0800284c <TIM_DMADelayPulseCplt>:
 800284c:	223d      	movs	r2, #61	; 0x3d
 800284e:	2301      	movs	r3, #1
 8002850:	b510      	push	{r4, lr}
 8002852:	6a44      	ldr	r4, [r0, #36]	; 0x24
 8002854:	54a3      	strb	r3, [r4, r2]
 8002856:	6a62      	ldr	r2, [r4, #36]	; 0x24
 8002858:	4282      	cmp	r2, r0
 800285a:	d00f      	beq.n	800287c <TIM_DMADelayPulseCplt+0x30>
 800285c:	6aa3      	ldr	r3, [r4, #40]	; 0x28
 800285e:	4283      	cmp	r3, r0
 8002860:	d011      	beq.n	8002886 <TIM_DMADelayPulseCplt+0x3a>
 8002862:	6ae3      	ldr	r3, [r4, #44]	; 0x2c
 8002864:	4283      	cmp	r3, r0
 8002866:	d00b      	beq.n	8002880 <TIM_DMADelayPulseCplt+0x34>
 8002868:	6b23      	ldr	r3, [r4, #48]	; 0x30
 800286a:	4283      	cmp	r3, r0
 800286c:	d005      	beq.n	800287a <TIM_DMADelayPulseCplt+0x2e>
 800286e:	0020      	movs	r0, r4
 8002870:	f7fe f9c0 	bl	8000bf4 <HAL_TIM_PWM_PulseFinishedCallback>
 8002874:	2300      	movs	r3, #0
 8002876:	7723      	strb	r3, [r4, #28]
 8002878:	bd10      	pop	{r4, pc}
 800287a:	2308      	movs	r3, #8
 800287c:	7723      	strb	r3, [r4, #28]
 800287e:	e7f6      	b.n	800286e <TIM_DMADelayPulseCplt+0x22>
 8002880:	2304      	movs	r3, #4
 8002882:	7723      	strb	r3, [r4, #28]
 8002884:	e7f3      	b.n	800286e <TIM_DMADelayPulseCplt+0x22>
 8002886:	2302      	movs	r3, #2
 8002888:	7723      	strb	r3, [r4, #28]
 800288a:	e7f0      	b.n	800286e <TIM_DMADelayPulseCplt+0x22>

0800288c <HAL_TIM_PWM_PulseFinishedHalfCpltCallback>:
 800288c:	4770      	bx	lr
 800288e:	46c0      	nop			; (mov r8, r8)

08002890 <TIM_DMADelayPulseHalfCplt>:
 8002890:	223d      	movs	r2, #61	; 0x3d
 8002892:	2301      	movs	r3, #1
 8002894:	b510      	push	{r4, lr}
 8002896:	6a44      	ldr	r4, [r0, #36]	; 0x24
 8002898:	54a3      	strb	r3, [r4, r2]
 800289a:	6a62      	ldr	r2, [r4, #36]	; 0x24
 800289c:	4282      	cmp	r2, r0
 800289e:	d00f      	beq.n	80028c0 <TIM_DMADelayPulseHalfCplt+0x30>
 80028a0:	6aa3      	ldr	r3, [r4, #40]	; 0x28
 80028a2:	4283      	cmp	r3, r0
 80028a4:	d011      	beq.n	80028ca <TIM_DMADelayPulseHalfCplt+0x3a>
 80028a6:	6ae3      	ldr	r3, [r4, #44]	; 0x2c
 80028a8:	4283      	cmp	r3, r0
 80028aa:	d00b      	beq.n	80028c4 <TIM_DMADelayPulseHalfCplt+0x34>
 80028ac:	6b23      	ldr	r3, [r4, #48]	; 0x30
 80028ae:	4283      	cmp	r3, r0
 80028b0:	d005      	beq.n	80028be <TIM_DMADelayPulseHalfCplt+0x2e>
 80028b2:	0020      	movs	r0, r4
 80028b4:	f7ff ffea 	bl	800288c <HAL_TIM_PWM_PulseFinishedHalfCpltCallback>
 80028b8:	2300      	movs	r3, #0
 80028ba:	7723      	strb	r3, [r4, #28]
 80028bc:	bd10      	pop	{r4, pc}
 80028be:	2308      	movs	r3, #8
 80028c0:	7723      	strb	r3, [r4, #28]
 80028c2:	e7f6      	b.n	80028b2 <TIM_DMADelayPulseHalfCplt+0x22>
 80028c4:	2304      	movs	r3, #4
 80028c6:	7723      	strb	r3, [r4, #28]
 80028c8:	e7f3      	b.n	80028b2 <TIM_DMADelayPulseHalfCplt+0x22>
 80028ca:	2302      	movs	r3, #2
 80028cc:	7723      	strb	r3, [r4, #28]
 80028ce:	e7f0      	b.n	80028b2 <TIM_DMADelayPulseHalfCplt+0x22>

080028d0 <HAL_TIM_TriggerCallback>:
 80028d0:	4770      	bx	lr
 80028d2:	46c0      	nop			; (mov r8, r8)

080028d4 <HAL_TIM_IRQHandler>:
 80028d4:	2202      	movs	r2, #2
 80028d6:	6803      	ldr	r3, [r0, #0]
 80028d8:	b510      	push	{r4, lr}
 80028da:	6919      	ldr	r1, [r3, #16]
 80028dc:	0004      	movs	r4, r0
 80028de:	420a      	tst	r2, r1
 80028e0:	d002      	beq.n	80028e8 <HAL_TIM_IRQHandler+0x14>
 80028e2:	68d9      	ldr	r1, [r3, #12]
 80028e4:	420a      	tst	r2, r1
 80028e6:	d165      	bne.n	80029b4 <HAL_TIM_IRQHandler+0xe0>
 80028e8:	2204      	movs	r2, #4
 80028ea:	6919      	ldr	r1, [r3, #16]
 80028ec:	420a      	tst	r2, r1
 80028ee:	d002      	beq.n	80028f6 <HAL_TIM_IRQHandler+0x22>
 80028f0:	68d9      	ldr	r1, [r3, #12]
 80028f2:	420a      	tst	r2, r1
 80028f4:	d14b      	bne.n	800298e <HAL_TIM_IRQHandler+0xba>
 80028f6:	2208      	movs	r2, #8
 80028f8:	6919      	ldr	r1, [r3, #16]
 80028fa:	420a      	tst	r2, r1
 80028fc:	d002      	beq.n	8002904 <HAL_TIM_IRQHandler+0x30>
 80028fe:	68d9      	ldr	r1, [r3, #12]
 8002900:	420a      	tst	r2, r1
 8002902:	d133      	bne.n	800296c <HAL_TIM_IRQHandler+0x98>
 8002904:	2210      	movs	r2, #16
 8002906:	6919      	ldr	r1, [r3, #16]
 8002908:	420a      	tst	r2, r1
 800290a:	d002      	beq.n	8002912 <HAL_TIM_IRQHandler+0x3e>
 800290c:	68d9      	ldr	r1, [r3, #12]
 800290e:	420a      	tst	r2, r1
 8002910:	d11c      	bne.n	800294c <HAL_TIM_IRQHandler+0x78>
 8002912:	2201      	movs	r2, #1
 8002914:	6919      	ldr	r1, [r3, #16]
 8002916:	420a      	tst	r2, r1
 8002918:	d002      	beq.n	8002920 <HAL_TIM_IRQHandler+0x4c>
 800291a:	68d9      	ldr	r1, [r3, #12]
 800291c:	420a      	tst	r2, r1
 800291e:	d15c      	bne.n	80029da <HAL_TIM_IRQHandler+0x106>
 8002920:	2280      	movs	r2, #128	; 0x80
 8002922:	6919      	ldr	r1, [r3, #16]
 8002924:	420a      	tst	r2, r1
 8002926:	d002      	beq.n	800292e <HAL_TIM_IRQHandler+0x5a>
 8002928:	68d9      	ldr	r1, [r3, #12]
 800292a:	420a      	tst	r2, r1
 800292c:	d15c      	bne.n	80029e8 <HAL_TIM_IRQHandler+0x114>
 800292e:	2240      	movs	r2, #64	; 0x40
 8002930:	6919      	ldr	r1, [r3, #16]
 8002932:	420a      	tst	r2, r1
 8002934:	d002      	beq.n	800293c <HAL_TIM_IRQHandler+0x68>
 8002936:	68d9      	ldr	r1, [r3, #12]
 8002938:	420a      	tst	r2, r1
 800293a:	d15d      	bne.n	80029f8 <HAL_TIM_IRQHandler+0x124>
 800293c:	2220      	movs	r2, #32
 800293e:	6919      	ldr	r1, [r3, #16]
 8002940:	420a      	tst	r2, r1
 8002942:	d002      	beq.n	800294a <HAL_TIM_IRQHandler+0x76>
 8002944:	68d9      	ldr	r1, [r3, #12]
 8002946:	420a      	tst	r2, r1
 8002948:	d141      	bne.n	80029ce <HAL_TIM_IRQHandler+0xfa>
 800294a:	bd10      	pop	{r4, pc}
 800294c:	3a21      	subs	r2, #33	; 0x21
 800294e:	611a      	str	r2, [r3, #16]
 8002950:	3219      	adds	r2, #25
 8002952:	7722      	strb	r2, [r4, #28]
 8002954:	69da      	ldr	r2, [r3, #28]
 8002956:	23c0      	movs	r3, #192	; 0xc0
 8002958:	009b      	lsls	r3, r3, #2
 800295a:	0020      	movs	r0, r4
 800295c:	421a      	tst	r2, r3
 800295e:	d05e      	beq.n	8002a1e <HAL_TIM_IRQHandler+0x14a>
 8002960:	f7ff ff72 	bl	8002848 <HAL_TIM_IC_CaptureCallback>
 8002964:	2300      	movs	r3, #0
 8002966:	7723      	strb	r3, [r4, #28]
 8002968:	6823      	ldr	r3, [r4, #0]
 800296a:	e7d2      	b.n	8002912 <HAL_TIM_IRQHandler+0x3e>
 800296c:	3a11      	subs	r2, #17
 800296e:	611a      	str	r2, [r3, #16]
 8002970:	69db      	ldr	r3, [r3, #28]
 8002972:	320d      	adds	r2, #13
 8002974:	7722      	strb	r2, [r4, #28]
 8002976:	0020      	movs	r0, r4
 8002978:	079b      	lsls	r3, r3, #30
 800297a:	d14d      	bne.n	8002a18 <HAL_TIM_IRQHandler+0x144>
 800297c:	f7ff ff62 	bl	8002844 <HAL_TIM_OC_DelayElapsedCallback>
 8002980:	0020      	movs	r0, r4
 8002982:	f7fe f937 	bl	8000bf4 <HAL_TIM_PWM_PulseFinishedCallback>
 8002986:	2300      	movs	r3, #0
 8002988:	7723      	strb	r3, [r4, #28]
 800298a:	6823      	ldr	r3, [r4, #0]
 800298c:	e7ba      	b.n	8002904 <HAL_TIM_IRQHandler+0x30>
 800298e:	3a09      	subs	r2, #9
 8002990:	611a      	str	r2, [r3, #16]
 8002992:	3207      	adds	r2, #7
 8002994:	7722      	strb	r2, [r4, #28]
 8002996:	699a      	ldr	r2, [r3, #24]
 8002998:	23c0      	movs	r3, #192	; 0xc0
 800299a:	009b      	lsls	r3, r3, #2
 800299c:	0020      	movs	r0, r4
 800299e:	421a      	tst	r2, r3
 80029a0:	d137      	bne.n	8002a12 <HAL_TIM_IRQHandler+0x13e>
 80029a2:	f7ff ff4f 	bl	8002844 <HAL_TIM_OC_DelayElapsedCallback>
 80029a6:	0020      	movs	r0, r4
 80029a8:	f7fe f924 	bl	8000bf4 <HAL_TIM_PWM_PulseFinishedCallback>
 80029ac:	2300      	movs	r3, #0
 80029ae:	7723      	strb	r3, [r4, #28]
 80029b0:	6823      	ldr	r3, [r4, #0]
 80029b2:	e7a0      	b.n	80028f6 <HAL_TIM_IRQHandler+0x22>
 80029b4:	3a05      	subs	r2, #5
 80029b6:	611a      	str	r2, [r3, #16]
 80029b8:	699b      	ldr	r3, [r3, #24]
 80029ba:	3204      	adds	r2, #4
 80029bc:	7702      	strb	r2, [r0, #28]
 80029be:	079b      	lsls	r3, r3, #30
 80029c0:	d021      	beq.n	8002a06 <HAL_TIM_IRQHandler+0x132>
 80029c2:	f7ff ff41 	bl	8002848 <HAL_TIM_IC_CaptureCallback>
 80029c6:	2300      	movs	r3, #0
 80029c8:	7723      	strb	r3, [r4, #28]
 80029ca:	6823      	ldr	r3, [r4, #0]
 80029cc:	e78c      	b.n	80028e8 <HAL_TIM_IRQHandler+0x14>
 80029ce:	3a41      	subs	r2, #65	; 0x41
 80029d0:	611a      	str	r2, [r3, #16]
 80029d2:	0020      	movs	r0, r4
 80029d4:	f000 f864 	bl	8002aa0 <HAL_TIMEx_CommutCallback>
 80029d8:	e7b7      	b.n	800294a <HAL_TIM_IRQHandler+0x76>
 80029da:	3a03      	subs	r2, #3
 80029dc:	611a      	str	r2, [r3, #16]
 80029de:	0020      	movs	r0, r4
 80029e0:	f7fe f90e 	bl	8000c00 <HAL_TIM_PeriodElapsedCallback>
 80029e4:	6823      	ldr	r3, [r4, #0]
 80029e6:	e79b      	b.n	8002920 <HAL_TIM_IRQHandler+0x4c>
 80029e8:	3a02      	subs	r2, #2
 80029ea:	3aff      	subs	r2, #255	; 0xff
 80029ec:	611a      	str	r2, [r3, #16]
 80029ee:	0020      	movs	r0, r4
 80029f0:	f000 f858 	bl	8002aa4 <HAL_TIMEx_BreakCallback>
 80029f4:	6823      	ldr	r3, [r4, #0]
 80029f6:	e79a      	b.n	800292e <HAL_TIM_IRQHandler+0x5a>
 80029f8:	3a81      	subs	r2, #129	; 0x81
 80029fa:	611a      	str	r2, [r3, #16]
 80029fc:	0020      	movs	r0, r4
 80029fe:	f7ff ff67 	bl	80028d0 <HAL_TIM_TriggerCallback>
 8002a02:	6823      	ldr	r3, [r4, #0]
 8002a04:	e79a      	b.n	800293c <HAL_TIM_IRQHandler+0x68>
 8002a06:	f7ff ff1d 	bl	8002844 <HAL_TIM_OC_DelayElapsedCallback>
 8002a0a:	0020      	movs	r0, r4
 8002a0c:	f7fe f8f2 	bl	8000bf4 <HAL_TIM_PWM_PulseFinishedCallback>
 8002a10:	e7d9      	b.n	80029c6 <HAL_TIM_IRQHandler+0xf2>
 8002a12:	f7ff ff19 	bl	8002848 <HAL_TIM_IC_CaptureCallback>
 8002a16:	e7c9      	b.n	80029ac <HAL_TIM_IRQHandler+0xd8>
 8002a18:	f7ff ff16 	bl	8002848 <HAL_TIM_IC_CaptureCallback>
 8002a1c:	e7b3      	b.n	8002986 <HAL_TIM_IRQHandler+0xb2>
 8002a1e:	f7ff ff11 	bl	8002844 <HAL_TIM_OC_DelayElapsedCallback>
 8002a22:	0020      	movs	r0, r4
 8002a24:	f7fe f8e6 	bl	8000bf4 <HAL_TIM_PWM_PulseFinishedCallback>
 8002a28:	e79c      	b.n	8002964 <HAL_TIM_IRQHandler+0x90>
 8002a2a:	46c0      	nop			; (mov r8, r8)

08002a2c <HAL_TIM_ErrorCallback>:
 8002a2c:	4770      	bx	lr
 8002a2e:	46c0      	nop			; (mov r8, r8)

08002a30 <TIM_DMAError>:
 8002a30:	233d      	movs	r3, #61	; 0x3d
 8002a32:	2201      	movs	r2, #1
 8002a34:	b510      	push	{r4, lr}
 8002a36:	6a40      	ldr	r0, [r0, #36]	; 0x24
 8002a38:	54c2      	strb	r2, [r0, r3]
 8002a3a:	f7ff fff7 	bl	8002a2c <HAL_TIM_ErrorCallback>
 8002a3e:	bd10      	pop	{r4, pc}

08002a40 <HAL_TIMEx_MasterConfigSynchronization>:
 8002a40:	233c      	movs	r3, #60	; 0x3c
 8002a42:	b530      	push	{r4, r5, lr}
 8002a44:	5cc2      	ldrb	r2, [r0, r3]
 8002a46:	2a01      	cmp	r2, #1
 8002a48:	d023      	beq.n	8002a92 <HAL_TIMEx_MasterConfigSynchronization+0x52>
 8002a4a:	2201      	movs	r2, #1
 8002a4c:	2570      	movs	r5, #112	; 0x70
 8002a4e:	54c2      	strb	r2, [r0, r3]
 8002a50:	3301      	adds	r3, #1
 8002a52:	3201      	adds	r2, #1
 8002a54:	54c2      	strb	r2, [r0, r3]
 8002a56:	6803      	ldr	r3, [r0, #0]
 8002a58:	685a      	ldr	r2, [r3, #4]
 8002a5a:	689c      	ldr	r4, [r3, #8]
 8002a5c:	43aa      	bics	r2, r5
 8002a5e:	680d      	ldr	r5, [r1, #0]
 8002a60:	432a      	orrs	r2, r5
 8002a62:	605a      	str	r2, [r3, #4]
 8002a64:	4a0c      	ldr	r2, [pc, #48]	; (8002a98 <HAL_TIMEx_MasterConfigSynchronization+0x58>)
 8002a66:	4293      	cmp	r3, r2
 8002a68:	d006      	beq.n	8002a78 <HAL_TIMEx_MasterConfigSynchronization+0x38>
 8002a6a:	2280      	movs	r2, #128	; 0x80
 8002a6c:	05d2      	lsls	r2, r2, #23
 8002a6e:	4293      	cmp	r3, r2
 8002a70:	d002      	beq.n	8002a78 <HAL_TIMEx_MasterConfigSynchronization+0x38>
 8002a72:	4a0a      	ldr	r2, [pc, #40]	; (8002a9c <HAL_TIMEx_MasterConfigSynchronization+0x5c>)
 8002a74:	4293      	cmp	r3, r2
 8002a76:	d104      	bne.n	8002a82 <HAL_TIMEx_MasterConfigSynchronization+0x42>
 8002a78:	2280      	movs	r2, #128	; 0x80
 8002a7a:	4394      	bics	r4, r2
 8002a7c:	684a      	ldr	r2, [r1, #4]
 8002a7e:	4314      	orrs	r4, r2
 8002a80:	609c      	str	r4, [r3, #8]
 8002a82:	233d      	movs	r3, #61	; 0x3d
 8002a84:	2201      	movs	r2, #1
 8002a86:	54c2      	strb	r2, [r0, r3]
 8002a88:	2200      	movs	r2, #0
 8002a8a:	3b01      	subs	r3, #1
 8002a8c:	54c2      	strb	r2, [r0, r3]
 8002a8e:	2000      	movs	r0, #0
 8002a90:	bd30      	pop	{r4, r5, pc}
 8002a92:	2002      	movs	r0, #2
 8002a94:	e7fc      	b.n	8002a90 <HAL_TIMEx_MasterConfigSynchronization+0x50>
 8002a96:	46c0      	nop			; (mov r8, r8)
 8002a98:	40012c00 	.word	0x40012c00
 8002a9c:	40000400 	.word	0x40000400

08002aa0 <HAL_TIMEx_CommutCallback>:
 8002aa0:	4770      	bx	lr
 8002aa2:	46c0      	nop			; (mov r8, r8)

08002aa4 <HAL_TIMEx_BreakCallback>:
 8002aa4:	4770      	bx	lr
 8002aa6:	46c0      	nop			; (mov r8, r8)

08002aa8 <__libc_init_array>:
 8002aa8:	b570      	push	{r4, r5, r6, lr}
 8002aaa:	2600      	movs	r6, #0
 8002aac:	4d0c      	ldr	r5, [pc, #48]	; (8002ae0 <__libc_init_array+0x38>)
 8002aae:	4c0d      	ldr	r4, [pc, #52]	; (8002ae4 <__libc_init_array+0x3c>)
 8002ab0:	1b64      	subs	r4, r4, r5
 8002ab2:	10a4      	asrs	r4, r4, #2
 8002ab4:	42a6      	cmp	r6, r4
 8002ab6:	d109      	bne.n	8002acc <__libc_init_array+0x24>
 8002ab8:	2600      	movs	r6, #0
 8002aba:	f000 f821 	bl	8002b00 <_init>
 8002abe:	4d0a      	ldr	r5, [pc, #40]	; (8002ae8 <__libc_init_array+0x40>)
 8002ac0:	4c0a      	ldr	r4, [pc, #40]	; (8002aec <__libc_init_array+0x44>)
 8002ac2:	1b64      	subs	r4, r4, r5
 8002ac4:	10a4      	asrs	r4, r4, #2
 8002ac6:	42a6      	cmp	r6, r4
 8002ac8:	d105      	bne.n	8002ad6 <__libc_init_array+0x2e>
 8002aca:	bd70      	pop	{r4, r5, r6, pc}
 8002acc:	00b3      	lsls	r3, r6, #2
 8002ace:	58eb      	ldr	r3, [r5, r3]
 8002ad0:	4798      	blx	r3
 8002ad2:	3601      	adds	r6, #1
 8002ad4:	e7ee      	b.n	8002ab4 <__libc_init_array+0xc>
 8002ad6:	00b3      	lsls	r3, r6, #2
 8002ad8:	58eb      	ldr	r3, [r5, r3]
 8002ada:	4798      	blx	r3
 8002adc:	3601      	adds	r6, #1
 8002ade:	e7f2      	b.n	8002ac6 <__libc_init_array+0x1e>
 8002ae0:	08002b48 	.word	0x08002b48
 8002ae4:	08002b48 	.word	0x08002b48
 8002ae8:	08002b48 	.word	0x08002b48
 8002aec:	08002b4c 	.word	0x08002b4c

08002af0 <memset>:
 8002af0:	0003      	movs	r3, r0
 8002af2:	1812      	adds	r2, r2, r0
 8002af4:	4293      	cmp	r3, r2
 8002af6:	d100      	bne.n	8002afa <memset+0xa>
 8002af8:	4770      	bx	lr
 8002afa:	7019      	strb	r1, [r3, #0]
 8002afc:	3301      	adds	r3, #1
 8002afe:	e7f9      	b.n	8002af4 <memset+0x4>

08002b00 <_init>:
 8002b00:	b5f8      	push	{r3, r4, r5, r6, r7, lr}
 8002b02:	46c0      	nop			; (mov r8, r8)
 8002b04:	bcf8      	pop	{r3, r4, r5, r6, r7}
 8002b06:	bc08      	pop	{r3}
 8002b08:	469e      	mov	lr, r3
 8002b0a:	4770      	bx	lr

08002b0c <_fini>:
 8002b0c:	b5f8      	push	{r3, r4, r5, r6, r7, lr}
 8002b0e:	46c0      	nop			; (mov r8, r8)
 8002b10:	bcf8      	pop	{r3, r4, r5, r6, r7}
 8002b12:	bc08      	pop	{r3}
 8002b14:	469e      	mov	lr, r3
 8002b16:	4770      	bx	lr
